(dp0
S'JINGLE158'
p1
(dp2
S'SDSSname'
p3
S'J134113.58+302327.4'
p4
sS'D25'
p5
cnumpy.core.multiarray
_reconstruct
p6
(cnumpy
ndarray
p7
(I0
tp8
S'b'
p9
tp10
Rp11
(I1
(I2
tp12
cnumpy
dtype
p13
(S'f8'
p14
I0
I1
tp15
Rp16
(I3
S'<'
p17
NNNI-1
I-1
I0
tp18
bI00
S'\xfe\xd4xi\xa3\x01\xe6?\xdd$\x06\x81\xd2\xfb\xdc?'
p19
tp20
bsS'metallicity'
p21
F0.43
sS'HIflux'
p22
F-999.0
sS'DEC'
p23
F30.39096
sS'Mstar'
p24
F9.18
sS'Dist'
p25
F170.1019778
sS'morph'
p26
S'S'
p27
sS'HIflag'
p28
I-999
sS'SFR'
p29
F-0.1
sS'field'
p30
S'NGP'
p31
sS'PA'
p32
F90.9
sS'RA'
p33
F205.306591
sS'z'
p34
F0.03998
ssS'JINGLE159'
p35
(dp36
g3
S'J132509.71+320051.9'
p37
sg5
g6
(g7
(I0
tp38
g9
tp39
Rp40
(I1
(I2
tp41
g16
I00
S'-\xb2\x9do\xee=\xe6?\xc0\xca\xa1\xc5h\x1d\xe4?'
p42
tp43
bsg21
F1.28
sg22
F-999.0
sg23
F32.014417
sg24
F10.5
sg25
F171.1245105
sg26
g27
sg28
I-999
sg29
F0.52
sg30
g31
sg32
F142.4
sg33
F201.290462
sg34
F0.04023
ssS'JINGLE109'
p44
(dp45
g3
S'J144307.78+010600.0'
p46
sg5
g6
(g7
(I0
tp47
g9
tp48
Rp49
(I1
(I2
tp50
g16
I00
S'\n\xd7\xa3\xf0\x91?\xf5?\x8f\xc2\xf5(\x8b\x89\xd7?'
p51
tp52
bsg21
F1.29
sg22
F-999.0
sg23
F1.100021
sg24
F10.32
sg25
F144.7919537
sg26
g27
sg28
I-999
sg29
F-0.13
sg30
S'GAMA15'
p53
sg32
F15.6
sg33
F220.782444
sg34
F0.03383
ssS'JINGLE152'
p54
(dp55
g3
S'J125809.22+284230.8'
p56
sg5
g6
(g7
(I0
tp57
g9
tp58
Rp59
(I1
(I2
tp60
g16
I00
S'{\x14\xaeGM\xad\x03@?5^:\xcd;\xe5?'
p61
tp62
bsg21
F1.24
sg22
F1.45
sg23
F28.708561
sg24
F10.33
sg25
F109.479151
sg26
g27
sg28
I1
sg29
F0.16
sg30
g31
sg32
F82.8
sg33
F194.538441
sg34
F0.02537
ssS'JINGLE153'
p63
(dp64
g3
S'J132115.52+333732.0'
p65
sg5
g6
(g7
(I0
tp66
g9
tp67
Rp68
(I1
(I2
tp69
g16
I00
S'O\x8d\x97n\xb4\x8e\xe5?\x05\x81\x95C\xc8$\xdb?'
p70
tp71
bsg21
F0.77
sg22
F-999.0
sg23
F33.625572
sg24
F9.74
sg25
F165.5149901
sg26
g27
sg28
I-999
sg29
F-0.01
sg30
g31
sg32
F152.1
sg33
F200.314674
sg34
F0.03886
ssS'JINGLE150'
p72
(dp73
g3
S'J132800.24+315216.4'
p74
sg5
g6
(g7
(I0
tp75
g9
tp76
Rp77
(I1
(I2
tp78
g16
I00
S'\x0c\x02+\x87\xb1\x05\xfb?$\x06\x81\x95\xe5\x96\xe0?'
p79
tp80
bsg21
F1.5
sg22
F-999.0
sg23
F31.871239
sg24
F11.12
sg25
F164.3256755
sg26
g27
sg28
I-999
sg29
F0.61
sg30
g31
sg32
F67.5
sg33
F202.001031
sg34
F0.03857
ssS'JINGLE151'
p81
(dp82
g3
S'J142433.17+011038.3'
p83
sg5
g6
(g7
(I0
tp84
g9
tp85
Rp86
(I1
(I2
tp87
g16
I00
S'$\x06\x81\x95\x80\xc3\xf9?\xe5\xd0"\xdb\x86m\xf8?'
p88
tp89
bsg21
F1.55
sg22
F5.97
sg23
F1.177318
sg24
F11.23
sg25
F165.18697
sS'PGC'
p90
S'PGC51462'
p91
sg26
g27
sg28
I1
sg29
F-0.75
sg30
g53
sg32
F100.0
sg33
F216.138223
sg34
F0.03878
ssS'JINGLE156'
p92
(dp93
g3
S'J132443.68+323225.0'
p94
sg5
g6
(g7
(I0
tp95
g9
tp96
Rp97
(I1
(I2
tp98
g16
I00
S';\xdfO\x8d\x90\x0f\xf9?\x07\xac\x1cZ.b\xf4?'
p99
tp100
bsg21
F1.35
sg22
F-999.0
sg23
F32.540287
sg24
F10.84
sg25
F169.2835976
sg26
g27
sg28
I-999
sg29
F1.21
sg30
g31
sg32
F26.1
sg33
F201.182003
sg34
F0.03978
ssS'JINGLE157'
p101
(dp102
g3
S'J132515.15+324016.1'
p103
sg5
g6
(g7
(I0
tp104
g9
tp105
Rp106
(I1
(I2
tp107
g16
I00
S'\xebQ\xb8\x1e\xf1\x1d\xfa?\xdd$\x06\x01\x19s\xe0?'
p108
tp109
bsg21
F1.49
sg22
F-999.0
sg23
F32.671138
sg24
F10.86
sg25
F169.5291447
sg26
g27
sg28
I-999
sg29
F0.06
sg30
g31
sg32
F110.0
sg33
F201.313155
sg34
F0.03984
ssS'JINGLE154'
p110
(dp111
g3
S'J115705.93+010731.8'
p112
sg5
g6
(g7
(I0
tp113
g9
tp114
Rp115
(I1
(I2
tp116
g16
I00
S'E\xb6\xf3\xfdhF\xf6?\xdd$\x06\x81_\xea\xea?'
p117
tp118
bsg21
F1.49
sg22
F1.43
sg23
F1.12552
sg24
F11.2
sg25
F168.342071
sg26
g27
sg28
I1
sg29
F1.0
sg30
S'GAMA12'
p119
sg32
F144.4
sg33
F179.274744
sg34
F0.03955
ssS'JINGLE155'
p120
(dp121
g3
S'J121948.26-005231.6'
p122
sg5
g6
(g7
(I0
tp123
g9
tp124
Rp125
(I1
(I2
tp126
g16
I00
S'`\xe5\xd0"2\x8f\xf7?\xd4x\xe9&n\xc0\xe8?'
p127
tp128
bsg21
F1.52
sg22
F-999.0
sg23
F-0.875445
sg24
F11.03
sg25
F168.5467862
sg90
S'PGC39714'
p129
sg26
g27
sg28
I-999
sg29
F-0.7
sg30
g119
sg32
F106.8
sg33
F184.951095
sg34
F0.0396
ssS'JINGLE25'
p130
(dp131
g3
S'J130636.39+275222.6'
p132
sg5
g6
(g7
(I0
tp133
g9
tp134
Rp135
(I1
(I2
tp136
g16
I00
S'\xd9\xce\xf7S\x8c\x10\xfd?\xfa~j\xbc\x0f@\xe7?'
p137
tp138
bsg21
F0.97
sg22
F1.11
sg23
F27.872951
sg24
F10.07
sg25
F90.754469
sg90
S'PGC45386'
p139
sg26
g27
sg28
I1
sg29
F0.31
sg30
g31
sg32
F131.9
sg33
F196.651636
sg34
F0.02094
ssS'JINGLE24'
p140
(dp141
g3
S'J121520.15-002352.9'
p142
sg5
g6
(g7
(I0
tp143
g9
tp144
Rp145
(I1
(I2
tp146
g16
I00
S'\x7fj\xbc\xf4\xb1\xf4\xf6?\xa1E\xb6\xf3\x91"\xd2?'
p147
tp148
bsg21
F0.66
sg22
F-999.0
sg23
F-0.39805
sg24
F9.35
sg25
F90.11760543
sg26
g27
sg28
I-999
sg29
F-0.79
sg30
g119
sg32
F15.3
sg33
F183.833969
sg34
F0.02079
ssS'JINGLE27'
p149
(dp150
g3
S'J121552.50+002402.5'
p151
sg5
g6
(g7
(I0
tp152
g9
tp153
Rp154
(I1
(I2
tp155
g16
I00
S'\xfc\xa9\xf1\xd2\xb9T\x01@\x89A`\xe5\xd0"\xf3?'
p156
tp157
bsg21
F1.5
sg22
F4.27
sg23
F0.400698
sg24
F10.64
sg25
F91.17894
sg90
S'PGC39245'
p158
sg26
g27
sg28
I1
sg29
F-1.24
sg30
g119
sg32
F154.0
sg33
F183.968749
sg34
F0.02104
ssS'JINGLE26'
p159
(dp160
g3
S'J130916.08+292203.5'
p161
sg5
g6
(g7
(I0
tp162
g9
tp163
Rp164
(I1
(I2
tp165
g16
I00
S'\x84\xebQ8\xd8\r\xf2?S\xe3\xa5\x9b)t\xec?'
p166
tp167
bsg21
F0.66
sg22
F1.08
sg23
F29.367651
sg24
F9.67
sg25
F90.754469
sg90
S'PGC45607'
p168
sg26
g27
sg28
I1
sg29
F0.2
sg30
g31
sg32
F20.2
sg33
F197.317016
sg34
F0.02094
ssS'JINGLE21'
p169
(dp170
g3
S'J131258.27+311531.0'
p171
sg5
g6
(g7
(I0
tp172
g9
tp173
Rp174
(I1
(I2
tp175
g16
I00
S'\xa5\x9b\xc4 \xb0r\xf6?C\x8blg\xa7\xf4\xf2?'
p176
tp177
bsg21
F0.99
sg22
F3.2
sg23
F31.258617
sg24
F9.58
sg25
F88.33339216
sg90
S'PGC45905'
p178
sg26
g27
sg28
I3
sg29
F-1.27
sg30
g31
sg32
F125.4
sg33
F198.242817
sg34
F0.02037
ssS'JINGLE20'
p179
(dp180
g3
S'J130316.24+280149.4'
p181
sg5
g6
(g7
(I0
tp182
g9
tp183
Rp184
(I1
(I2
tp185
g16
I00
S'\xc2\xf5(\\\x8f\x02\x04@\xfe\xd4xi\xd9Z\xe1?'
p186
tp187
bsg21
F1.45
sg22
F-999.0
sg23
F28.030404
sg24
F10.44
sg25
F88.12088798
sg90
S'PGC45082'
p188
sg26
g27
sg28
I-999
sg29
F-0.68
sg30
g31
sg32
F102.7
sg33
F195.817685
sg34
F0.02032
ssS'JINGLE23'
p189
(dp190
g3
S'J120018.00+001741.9'
p191
sg5
g6
(g7
(I0
tp192
g9
tp193
Rp194
(I1
(I2
tp195
g16
I00
S'\xed|?5\xeb\xa8\xfc?\xef\xa7\xc6K\xd9\x94\xe7?'
p196
tp197
bsg21
F1.11
sg22
F1.03
sg23
F0.294986
sg24
F10.1
sg25
F89.565506
sg90
S'PGC37839'
p198
sg26
g27
sg28
I2
sg29
F-0.09
sg30
g119
sg32
F12.2
sg33
F180.075007
sg34
F0.02066
ssS'JINGLE22'
p199
(dp200
g3
S'J130329.08+263301.7'
p201
sg5
g6
(g7
(I0
tp202
g9
tp203
Rp204
(I1
(I2
tp205
g16
I00
S'\x05\x81\x95\xc3\xa9\x08\x02@\xac\x1cZd\xcf,\xed?'
p206
tp207
bsg21
F1.47
sg22
F3.99
sg23
F26.550498
sg24
F10.62
sg25
F95.67323219
sg90
S'PGC45097'
p208
sg26
g27
sg28
I1
sg29
F-0.38
sg30
g31
sg32
F142.7
sg33
F195.871173
sg34
F0.0221
ssS'JINGLE29'
p209
(dp210
g3
S'J115846.24-012757.0'
p211
sg5
g6
(g7
(I0
tp212
g9
tp213
Rp214
(I1
(I2
tp215
g16
I00
S'\xe9&1\x08v\xc3\xe5?\x1b/\xdd$\x06\x81\xe3?'
p216
tp217
bsg21
F0.78
sg22
F-999.0
sg23
F-1.465839
sg24
F9.67
sg25
F92.57910662
sg90
S'PGC37710'
p218
sg26
g27
sg28
I-999
sg29
F-0.24
sg30
g119
sg32
F99.4
sg33
F179.692678
sg34
F0.02137
ssS'JINGLE28'
p219
(dp220
g3
S'J131047.64+294235.6'
p221
sg5
g6
(g7
(I0
tp222
g9
tp223
Rp224
(I1
(I2
tp225
g16
I00
S'\x16\xd9\xce\xf7\xe0\xd1\xfa?\x80\x95C\x8b//\xef?'
p226
tp227
bsg21
F1.32
sg22
F1.82
sg23
F29.709901
sg24
F10.27
sg25
F91.857922
sg90
S'PGC45742'
p228
sg26
g27
sg28
I1
sg29
F-0.4
sg30
g31
sg32
F4.3
sg33
F197.698525
sg34
F0.0212
ssS'JINGLE108'
p229
(dp230
g3
S'J143042.33+015253.2'
p231
sg5
g6
(g7
(I0
tp232
g9
tp233
Rp234
(I1
(I2
tp235
g16
I00
S'333\xb3\xe5\xdc\xf5?333\xb3\x14W\xf1?'
p236
tp237
bsg21
F1.17
sg22
F2.38
sg23
F1.881447
sg24
F10.49
sg25
F144.667752
sg26
g27
sg28
I1
sg29
F0.92
sg30
g53
sg32
F19.2
sg33
F217.676379
sg34
F0.0338
ssS'JINGLE129'
p238
(dp239
g3
S'J115736.61+010826.7'
p240
sg5
g6
(g7
(I0
tp241
g9
tp242
Rp243
(I1
(I2
tp244
g16
I00
S'\x7fj\xbc\xf4\xe0n\xf2?\x0c\x02+\x07\xc9\x02\xe3?'
p245
tp246
bsg21
F1.38
sg22
F-999.0
sg23
F1.140775
sg24
F10.49
sg25
F154.5811534
sg26
g27
sg28
I-999
sg29
F-0.02
sg30
g119
sg32
F116.6
sg33
F179.402561
sg34
F0.0362
ssS'JINGLE128'
p247
(dp248
g3
S'J130428.23+264019.0'
p249
sg5
g6
(g7
(I0
tp250
g9
tp251
Rp252
(I1
(I2
tp253
g16
I00
S'\xcc\xcc\xcc\xcc\xc5m\xf9?Zd;_\x9dc\xe6?'
p254
tp255
bsg21
F1.45
sg22
F2.66
sg23
F26.671962
sg24
F10.73
sg25
F153.550651
sg26
g27
sg28
I1
sg29
F0.17
sg30
g31
sg32
F72.4
sg33
F196.117638
sg34
F0.03595
ssS'JINGLE169'
p256
(dp257
g3
S'J084532.01+011736.2'
p258
sg5
g6
(g7
(I0
tp259
g9
tp260
Rp261
(I1
(I2
tp262
g16
I00
S'U\x0e-2Wx\xe6?fff\xe6\x18\x90\xd3?'
p263
tp264
bsg21
F1.07
sg22
F-999.0
sg23
F1.293412
sg24
F10.11
sg25
F186.4037337
sg26
g27
sg28
I-999
sg29
F0.09
sg30
S'GAMA9'
p265
sg32
F120.5
sg33
F131.383381
sg34
F0.04398
ssS'JINGLE168'
p266
(dp267
g3
S'J085043.08+012102.4'
p268
sg5
g6
(g7
(I0
tp269
g9
tp270
Rp271
(I1
(I2
tp272
g16
I00
S'\xdd$\x06\x01~\xc6\xf2?\xb7\x1e\x85kp\x14\xf2?'
p273
tp274
bsg21
F1.5
sg22
F1.17
sg23
F1.350688
sg24
F10.96
sg25
F180.834466
sg26
g27
sg28
I2
sg29
F-0.23
sg30
g265
sg32
F156.7
sg33
F132.679516
sg34
F0.04261
ssS'JINGLE167'
p275
(dp276
g3
S'J085547.66+004739.4'
p277
sg5
g6
(g7
(I0
tp278
g9
tp279
Rp280
(I1
(I2
tp281
g16
I00
S';\xdfO\x8d\x90\x0f\xf9?\x8bl\xe7\xfbz\xf7\xe2?'
p282
tp283
bsg21
F1.44
sg22
F2.63
sg23
F0.794284
sg24
F10.98
sg25
F176.2298105
sg26
g27
sg28
I1
sg29
F1.04
sg30
g265
sg32
F92.7
sg33
F133.948594
sg34
F0.04148
ssS'JINGLE166'
p284
(dp285
g3
S'J133556.75+264239.8'
p286
sg5
g6
(g7
(I0
tp287
g9
tp288
Rp289
(I1
(I2
tp290
g16
I00
S'\xc2\xf5(\\\xe6W\xec?A`\xe5\xd0\xe5"\xeb?'
p291
tp292
bsg21
F1.37
sg22
F0.81
sg23
F26.711059
sg24
F10.59
sg25
F175.740233
sg26
g27
sg28
I1
sg29
F0.33
sg30
g31
sg32
F106.6
sg33
F203.986477
sg34
F0.04136
ssS'JINGLE165'
p293
(dp294
g3
S'J085337.44+004409.6'
p295
sg5
g6
(g7
(I0
tp296
g9
tp297
Rp298
(I1
(I2
tp299
g16
I00
S'g\x91\xed|M\xf3\xe8?/\xdd$\x06\x81\x95\xe2?'
p300
tp301
bsg21
F1.46
sg22
F-999.0
sg23
F0.736021
sg24
F10.88
sg25
F174.0258252
sg26
g27
sg28
I-999
sg29
F0.49
sg30
g265
sg32
F134.0
sg33
F133.406018
sg34
F0.04094
ssS'JINGLE164'
p302
(dp303
g3
S'J090045.90-002937.2'
p304
sg5
g6
(g7
(I0
tp305
g9
tp306
Rp307
(I1
(I2
tp308
g16
I00
S'4^\xbaI\xae\r\xe9?\xac\x1cZd;\xdf\xd3?'
p309
tp310
bsg21
F0.93
sg22
F-999.0
sg23
F-0.493692
sg24
F9.89
sg25
F173.4540483
sg26
g27
sg28
I-999
sg29
F-0.11
sg30
g265
sg32
F91.7
sg33
F135.191278
sg34
F0.0408
ssS'JINGLE163'
p311
(dp312
g3
S'J130125.07+284038.0'
p313
sg5
g6
(g7
(I0
tp314
g9
tp315
Rp316
(I1
(I2
tp317
g16
I00
S'\\\x8f\xc2u\xdb\x05\xf4?\x86\x16\xd9Nt$\xf2?'
p318
tp319
bsg21
F1.12
sg22
F-999.0
sg23
F28.677225
sg24
F10.23
sg25
F125.3289617
sg90
S'PGC44898'
p320
sg26
g27
sg28
I-999
sg29
F0.29
sg30
g31
sg32
F71.7
sg33
F195.35448
sg34
F0.02915
ssS'JINGLE162'
p321
(dp322
g3
S'J114103.60+014331.7'
p323
sg5
g6
(g7
(I0
tp324
g9
tp325
Rp326
(I1
(I2
tp327
g16
I00
S'\x01+\x87\x16L\xe0\xef?d;\xdfO\x94\xf6\xe6?'
p328
tp329
bsg21
F1.33
sg22
F0.78
sg23
F1.725497
sg24
F10.65
sg25
F172.6369572
sg90
S'PGC36248'
p330
sg26
g27
sg28
I2
sg29
F0.75
sg30
g119
sg32
F22.0
sg33
F175.265029
sg34
F0.0406
ssS'JINGLE161'
p331
(dp332
g3
S'J120446.29-000055.3'
p333
sg5
g6
(g7
(I0
tp334
g9
tp335
Rp336
(I1
(I2
tp337
g16
I00
S')\\\x8f\xc2\x974\xde?\xf7S\xe3%\xb3A\xd6?'
p338
tp339
bsg21
F0.6
sg22
F-999.0
sg23
F-0.015384
sg24
F9.41
sg25
F171.9421829
sg26
g27
sg28
I-999
sg29
F-0.34
sg30
g119
sg32
F29.0
sg33
F181.192874
sg34
F0.04043
ssS'JINGLE160'
p340
(dp341
g3
S'J131940.07+274221.7'
p342
sg5
g6
(g7
(I0
tp343
g9
tp344
Rp345
(I1
(I2
tp346
g16
I00
S'?5^\xba\x7fe\xe6?C\x8bl\xe7`\xfd\xe3?'
p347
tp348
bsg21
F1.14
sg22
F0.98
sg23
F27.706052
sg24
F10.2
sg25
F100.0314063
sg26
g27
sg28
I1
sg29
F0.11
sg30
g31
sg32
F149.9
sg33
F199.916972
sg34
F0.02313
ssS'JINGLE50'
p349
(dp350
g3
S'J132507.36+255053.3'
p351
sg5
g6
(g7
(I0
tp352
g9
tp353
Rp354
(I1
(I2
tp355
g16
I00
S'\x1cZd;6\xe5\xec?Zd;\xdf\xb4\xe0\xd9?'
p356
tp357
bsg21
F0.62
sg22
F0.87
sg23
F25.848158
sg24
F9.28
sg25
F104.254256
sg26
g27
sg28
I1
sg29
F-0.82
sg30
g31
sg32
F76.3
sg33
F201.280688
sg34
F0.02413
ssS'JINGLE51'
p358
(dp359
g3
S'J130615.12+252737.9'
p360
sg5
g6
(g7
(I0
tp361
g9
tp362
Rp363
(I1
(I2
tp364
g16
I00
S'n\x12\x83\xc0\x00\xfb\xf1?Q\xb8\x1e\x85\x1aL\xea?'
p365
tp366
bsg21
F0.9
sg22
F2.19
sg23
F25.460539
sg24
F10.06
sg25
F104.380814
sg90
S'PGC45356'
p367
sg26
g27
sg28
I1
sg29
F0.54
sg30
g31
sg32
F161.0
sg33
F196.563007
sg34
F0.02416
ssS'JINGLE52'
p368
(dp369
g3
S'J125440.02+322201.2'
p370
sg5
g6
(g7
(I0
tp371
g9
tp372
Rp373
(I1
(I2
tp374
g16
I00
S'333\xb3\x1b6\xf1?{\x14\xae\xc7\xf8\xf7\xe4?'
p375
tp376
bsg21
F1.06
sg22
F-999.0
sg23
F32.367022
sg24
F9.96
sg25
F104.4229988
sg26
g27
sg28
I-999
sg29
F-0.33
sg30
g31
sg32
F179.4
sg33
F193.666765
sg34
F0.02417
ssS'JINGLE53'
p377
(dp378
g3
S'J132917.28+264718.6'
p379
sg5
g6
(g7
(I0
tp380
g9
tp381
Rp382
(I1
(I2
tp383
g16
I00
S'$\x06\x81\x955\xcd\xee?=\n\xd7##g\xd5?'
p384
tp385
bsg21
F0.94
sg22
F-999.0
sg23
F26.788506
sg24
F9.71
sg25
F104.4229988
sg26
g27
sg28
I-999
sg29
F-0.7
sg30
g31
sg32
F156.5
sg33
F202.322031
sg34
F0.02417
ssS'JINGLE54'
p386
(dp387
g3
S'J130039.55+290109.8'
p388
sg5
g6
(g7
(I0
tp389
g9
tp390
Rp391
(I1
(I2
tp392
g16
I00
S'\xb6\xf3\xfd\xd4BP\x02@}?5\xde=y\xf2?'
p393
tp394
bsg21
F1.51
sg22
F1.07
sg23
F29.019407
sg24
F10.7
sg25
F104.760444
sg90
S'PGC44795'
p395
sg26
g27
sg28
I1
sg29
F-1.19
sg30
g31
sg32
F55.2
sg33
F195.164792
sg34
F0.02425
ssS'JINGLE55'
p396
(dp397
g3
S'J131101.71+293442.0'
p398
sg5
g6
(g7
(I0
tp399
g9
tp400
Rp401
(I1
(I2
tp402
g16
I00
S'O\x8d\x97nH\\\x03@\xf7S\xe3%\xe9\x9a\xf1?'
p403
tp404
bsg21
F1.5
sg22
F1.96
sg23
F29.578357
sg24
F11.09
sg25
F104.802621
sg90
S'PGC45757'
p405
sg26
g27
sg28
I1
sg29
F0.61
sg30
g31
sg32
F174.0
sg33
F197.757135
sg34
F0.02426
ssS'JINGLE56'
p406
(dp407
g3
S'J133316.29+343213.2'
p408
sg5
g6
(g7
(I0
tp409
g9
tp410
Rp411
(I1
(I2
tp412
g16
I00
S' \xb0rh\xc7\x06\x02@\xe5\xd0"[\xe2\x01\xe7?'
p413
tp414
bsg21
F1.49
sg22
F-999.0
sg23
F34.537002
sg24
F10.95
sg25
F105.1400073
sg26
g27
sg28
I-999
sg29
F0.27
sg30
g31
sg32
F95.5
sg33
F203.31788
sg34
F0.02434
ssS'JINGLE57'
p415
(dp416
g3
S'J130713.20+280249.0'
p417
sg5
g6
(g7
(I0
tp418
g9
tp419
Rp420
(I1
(I2
tp421
g16
I00
S'\xe9&1\x88\xf2\x13\xf0?b\x10X9\x19\x1c\xee?'
p422
tp423
bsg21
F0.95
sg22
F0.34
sg23
F28.046947
sg24
F9.92
sg25
F105.182177
sg90
S'PGC45442'
p424
sg26
g27
sg28
I2
sg29
F-0.06
sg30
g31
sg32
F177.7
sg33
F196.805015
sg34
F0.02435
ssS'JINGLE58'
p425
(dp426
g3
S'J133531.23+340907.7'
p427
sg5
g6
(g7
(I0
tp428
g9
tp429
Rp430
(I1
(I2
tp431
g16
I00
S'/\xdd$\x86\x98\x12\xf6?\xf3\xfd\xd4x\xdbh\xdc?'
p432
tp433
bsg21
F1.16
sg22
F-999.0
sg23
F34.152139
sg24
F10.08
sg25
F105.2243456
sg26
g27
sg28
I-999
sg29
F-0.33
sg30
g31
sg32
F36.0
sg33
F203.880138
sg34
F0.02436
ssS'JINGLE59'
p434
(dp435
g3
S'J133129.97+325258.3'
p436
sg5
g6
(g7
(I0
tp437
g9
tp438
Rp439
(I1
(I2
tp440
g16
I00
S'\x97n\x12\x83\xb9\xeb\xf4?\xe5\xd0"[\xb3\x07\xe0?'
p441
tp442
bsg21
F0.97
sg22
F-999.0
sg23
F32.882879
sg24
F9.98
sg25
F105.7724642
sg26
g27
sg28
I-999
sg29
F0.04
sg30
g31
sg32
F54.3
sg33
F202.874896
sg34
F0.02449
ssS'JINGLE125'
p443
(dp444
g3
S'J132156.64+285039.4'
p445
sg5
g6
(g7
(I0
tp446
g9
tp447
Rp448
(I1
(I2
tp449
g16
I00
S' \xb0rh[\x94\xf5?\x02+\x87\x16\xd9N\xf2?'
p450
tp451
bsg21
F1.44
sg22
F1.05
sg23
F28.844302
sg24
F10.82
sg25
F152.684644
sg26
g27
sg28
I1
sg29
F0.55
sg30
g31
sg32
F130.2
sg33
F200.486002
sg34
F0.03574
ssS'JINGLE124'
p452
(dp453
g3
S'J132731.45+342008.2'
p454
sg5
g6
(g7
(I0
tp455
g9
tp456
Rp457
(I1
(I2
tp458
g16
I00
S'4^\xbaI\xae\r\xe9?\x91\xed|?r\x16\xce?'
p459
tp460
bsg21
F0.6
sg22
F-999.0
sg23
F34.335611
sg24
F9.38
sg25
F152.230881
sg26
g27
sg28
I-999
sg29
F-0.43
sg30
g31
sg32
F66.3
sg33
F201.881049
sg34
F0.03563
ssS'JINGLE170'
p461
(dp462
g3
S'J133412.86+233833.2'
p463
sg5
g6
(g7
(I0
tp464
g9
tp465
Rp466
(I1
(I2
tp467
g16
I00
S'W9\xb4\xc8@e\xe5?~j\xbct\xa1\xd6\xde?'
p468
tp469
bsg21
F1.38
sg22
F-999.0
sg23
F23.642568
sg24
F10.57
sg25
F186.9314451
sg26
g27
sg28
I-999
sg29
F0.21
sg30
g31
sg32
F55.0
sg33
F203.553617
sg34
F0.04411
ssS'JINGLE171'
p470
(dp471
g3
S'J144256.63-004839.0'
p472
sg5
g6
(g7
(I0
tp473
g9
tp474
Rp475
(I1
(I2
tp476
g16
I00
S'\x97n\x12\x83\xfd\x82\xdb?\xe9&1\x08\xe9\xd4\xd7?'
p477
tp478
bsg21
F0.51
sg22
F-999.0
sg23
F-0.810837
sg24
F9.24
sg25
F190.5001928
sg26
g27
sg28
I-999
sg29
F-0.44
sg30
g53
sg32
F156.9
sg33
F220.735977
sg34
F0.04499
ssS'JINGLE172'
p479
(dp480
g3
S'J125634.64+262718.6'
p481
sg5
g6
(g7
(I0
tp482
g9
tp483
Rp484
(I1
(I2
tp485
g16
I00
S'\x89A`\xe5\xd7\x81\xee?+\x87\x16Y\x88\x80\xd1?'
p486
tp487
bsg21
F1.37
sg22
F-999.0
sg23
F26.455179
sg24
F10.45
sg25
F191.7964294
sg26
g27
sg28
I-999
sg29
F-0.1
sg30
g31
sg32
F95.0
sg33
F194.144341
sg34
F0.04531
ssS'JINGLE173'
p488
(dp489
g3
S'J133845.88+302849.5'
p490
sg5
g6
(g7
(I0
tp491
g9
tp492
Rp493
(I1
(I2
tp494
g16
I00
S'\xb7\x1e\x85k:\xbb\xf6?\n\xd7\xa3p\xd1W\xe4?'
p495
tp496
bsg21
F1.32
sg22
F-999.0
sg23
F30.480433
sg24
F10.38
sg25
F112.4231118
sg26
g27
sg28
I-999
sg29
F-0.04
sg30
g31
sg32
F85.0
sg33
F204.691173
sg34
F0.02607
ssS'JINGLE174'
p497
(dp498
g3
S'J084742.49+004056.0'
p499
sg5
g6
(g7
(I0
tp500
g9
tp501
Rp502
(I1
(I2
tp503
g16
I00
S'\x97n\x12\x83\xc0\xca\xe4?1\x08\xac\x9cB\xe7\xc5?'
p504
tp505
bsg21
F0.82
sg22
F-999.0
sg23
F0.682247
sg24
F9.56
sg25
F192.2013407
sg26
g27
sg28
I-999
sg29
F-0.73
sg30
g265
sg32
F73.9
sg33
F131.927049
sg34
F0.04541
ssS'JINGLE175'
p506
(dp507
g3
S'J133216.55+261614.1'
p508
sg5
g6
(g7
(I0
tp509
g9
tp510
Rp511
(I1
(I2
tp512
g16
I00
S'\xb5\xf3\xfd\xd4\xbc\x00\xea?C\x8bl\xe7\xfb\xa9\xe1?'
p513
tp514
bsg21
F1.21
sg22
F1.18
sg23
F26.270607
sg24
F10.4
sg25
F194.5887409
sg26
g27
sg28
I2
sg29
F0.48
sg30
g31
sg32
F48.8
sg33
F203.068961
sg34
F0.046
ssS'JINGLE176'
p515
(dp516
g3
S'J133541.90+235603.0'
p517
sg5
g6
(g7
(I0
tp518
g9
tp519
Rp520
(I1
(I2
tp521
g16
I00
S'\xd9\xce\xf7SOX\xe6?^\xbaI\x0c1%\xe5?'
p522
tp523
bsg21
F1.3
sg22
F0.65
sg23
F23.934188
sg24
F10.52
sg25
F195.033552
sg26
g27
sg28
I2
sg29
F0.45
sg30
g31
sg32
F179.9
sg33
F203.924608
sg34
F0.04611
ssS'JINGLE177'
p524
(dp525
g3
S'J132558.80+330043.1'
p526
sg5
g6
(g7
(I0
tp527
g9
tp528
Rp529
(I1
(I2
tp530
g16
I00
S'\xac\x1cZdj\xd9\xea?\\\x8f\xc2\xf5\xeb\xa3\xe7?'
p531
tp532
bsg21
F0.96
sg22
F-999.0
sg23
F33.011977
sg24
F10.4
sg25
F196.2866058
sg26
g27
sg28
I-999
sg29
F1.37
sg30
g31
sg32
F149.7
sg33
F201.495006
sg34
F0.04642
ssS'JINGLE178'
p533
(dp534
g3
S'J132912.24+294934.9'
p535
sg5
g6
(g7
(I0
tp536
g9
tp537
Rp538
(I1
(I2
tp539
g16
I00
S'\xf5(\\\x8f\x93\xfb\xeb?\x1a/\xdd$\x9a\xce\xdc?'
p540
tp541
bsg21
F1.41
sg22
F-999.0
sg23
F29.826367
sg24
F10.53
sg25
F196.3674226
sg26
g27
sg28
I-999
sg29
F-0.14
sg30
g31
sg32
F49.8
sg33
F202.301019
sg34
F0.04644
ssS'JINGLE179'
p542
(dp543
g3
S'J132014.23+312132.1'
p544
sg5
g6
(g7
(I0
tp545
g9
tp546
Rp547
(I1
(I2
tp548
g16
I00
S'\x16\xd9\xcew\rl\xe2?\xf1\xd2MbF\xb1\xe0?'
p549
tp550
bsg21
F1.08
sg22
F-999.0
sg23
F31.358917
sg24
F10.12
sg25
F196.6098542
sg26
g27
sg28
I-999
sg29
F0.08
sg30
g31
sg32
F35.1
sg33
F200.059326
sg34
F0.0465
ssS'JINGLE107'
p551
(dp552
g3
S'J133947.34+300725.7'
p553
sg5
g6
(g7
(I0
tp554
g9
tp555
Rp556
(I1
(I2
tp557
g16
I00
S'S\xe3\xa5\x9b0S\xfc?\xcc\xcc\xcc\xcc\x10\xe4\xef?'
p558
tp559
bsg21
F1.47
sg22
F1.84
sg23
F30.123825
sg24
F10.81
sg25
F144.3365126
sg90
S'PGC48327'
p560
sg26
g27
sg28
I1
sg29
F0.23
sg30
g31
sg32
F45.1
sg33
F204.947273
sg34
F0.03372
ssS'JINGLE106'
p561
(dp562
g3
S'J143842.98-000027.8'
p563
sg5
g6
(g7
(I0
tp564
g9
tp565
Rp566
(I1
(I2
tp567
g16
I00
S'\\\x8f\xc2\xf5\x8d/\xf5?n\x12\x83\xc0!7\xd9?'
p568
tp569
bsg21
F1.41
sg22
F-999.0
sg23
F-0.007748
sg24
F10.66
sg25
F144.2122846
sg26
g27
sg28
I-999
sg29
F0.29
sg30
g53
sg32
F167.1
sg33
F219.679111
sg34
F0.03369
ssS'JINGLE43'
p570
(dp571
g3
S'J133457.27+340238.7'
p572
sg5
g6
(g7
(I0
tp573
g9
tp574
Rp575
(I1
(I2
tp576
g16
I00
S'\xaa\xf1\xd2\xcd\xaf\xa6\x01@\x12\x83\xc0\xca5\x93\xf8?'
p577
tp578
bsg21
F1.22
sg22
F-999.0
sg23
F34.044084
sg24
F10.57
sg25
F102.228318
sg90
S'PGC47872'
p579
sg26
g27
sg28
I-999
sg29
F0.99
sg30
g31
sg32
F127.2
sg33
F203.738642
sg34
F0.02365
ssS'JINGLE42'
p580
(dp581
g3
S'J132643.48+303024.0'
p582
sg5
g6
(g7
(I0
tp583
g9
tp584
Rp585
(I1
(I2
tp586
g16
I00
S'O\x8d\x97n\xd5\xca\xec?\xb0rh\x91\xf4\xdb\xe5?'
p587
tp588
bsg21
F1.01
sg22
F-999.0
sg23
F30.506681
sg24
F9.94
sg25
F102.0171735
sg26
g27
sg28
I-999
sg29
F-0.24
sg30
g31
sg32
F26.5
sg33
F201.681173
sg34
F0.0236
ssS'JINGLE41'
p589
(dp590
g3
S'J130617.29+290347.4'
p591
sg5
g6
(g7
(I0
tp592
g9
tp593
Rp594
(I1
(I2
tp595
g16
I00
S'\xa4SW>\xcb\xf3\xfa?\xc6\xa2\xe9\xecdp\xec?'
p596
tp597
bsg21
F1.5
sg22
F2.97
sg23
F29.063178
sg24
F10.92
sg25
F101.087893
sg90
S'PGC45358'
p598
sg26
g27
sg28
I1
sg29
F-0.13
sg30
g31
sg32
F144.6
sg33
F196.572063
sg34
F0.02338
ssS'JINGLE40'
p599
(dp600
g3
S'J131745.18+273411.5'
p601
sg5
g6
(g7
(I0
tp602
g9
tp603
Rp604
(I1
(I2
tp605
g16
I00
S'j\xbct\x13m9\x03@\x97n\x12\x03\xa9M\xf1?'
p606
tp607
bsg21
F1.45
sg22
F5.28
sg23
F27.569866
sg24
F10.73
sg25
F100.707617
sg90
S'PGC46302'
p608
sg26
g27
sg28
I1
sg29
F0.22
sg30
g31
sg32
F107.4
sg33
F199.438267
sg34
F0.02329
ssS'JINGLE47'
p609
(dp610
g3
S'J125805.58+281433.3'
p611
sg5
g6
(g7
(I0
tp612
g9
tp613
Rp614
(I1
(I2
tp615
g16
I00
S'\xb3\xc8v\xbe\xfd\x8e\xfa?\x93\x18\x04V\x9b\x1b\xec?'
p616
tp617
bsg21
F1.36
sg22
F0.85
sg23
F28.242591
sg24
F10.71
sg25
F103.6635538
sg90
S'PGC44405'
p618
sg26
g27
sg28
I2
sg29
F0.79
sg30
g31
sg32
F159.1
sg33
F194.523282
sg34
F0.02399
ssS'JINGLE46'
p619
(dp620
g3
S'J130636.39+252546.6'
p621
sg5
g6
(g7
(I0
tp622
g9
tp623
Rp624
(I1
(I2
tp625
g16
I00
S'\xf7S\xe3\xa5\xca\xbe\xe9?\xac\x1cZd\xa02\xe6?'
p626
tp627
bsg21
F0.7
sg22
F1.41
sg23
F25.429626
sg24
F9.53
sg25
F103.536954
sg26
g27
sg28
I1
sg29
F-0.4
sg30
g31
sg32
F61.9
sg33
F196.651649
sg34
F0.02396
ssS'JINGLE45'
p628
(dp629
g3
S'J130831.57+244202.7'
p630
sg5
g6
(g7
(I0
tp631
g9
tp632
Rp633
(I1
(I2
tp634
g16
I00
S'\x84\xebQ\xb8M?\x12@\n\xd7\xa3\xf0\x1e.\xe3?'
p635
tp636
bsg21
F1.5
sg22
F4.65
sg23
F24.700764
sg24
F11.02
sg25
F102.692763
sg90
S'PGC45549'
p637
sg26
g27
sg28
I1
sg29
F-0.04
sg30
g31
sg32
F142.1
sg33
F197.131579
sg34
F0.02376
ssS'JINGLE44'
p638
(dp639
g3
S'J130143.37+290240.7'
p640
sg5
g6
(g7
(I0
tp641
g9
tp642
Rp643
(I1
(I2
tp644
g16
I00
S'C\x8bl\xe78b\x08@\x93\x18\x04V\xa9\xd9\xeb?'
p645
tp646
bsg21
F1.5
sg22
F4.9
sg23
F29.044658
sg24
F10.9
sg25
F102.566106
sg90
S'PGC44921'
p647
sg26
g27
sg28
I1
sg29
F-0.03
sg30
g31
sg32
F88.8
sg33
F195.430723
sg34
F0.02373
ssS'JINGLE49'
p648
(dp649
g3
S'J125731.20+263043.7'
p650
sg5
g6
(g7
(I0
tp651
g9
tp652
Rp653
(I1
(I2
tp654
g16
I00
S'W9\xb4\xc8\xe9O\xfe?\x9d\xef\xa7Fc\xb4\xe5?'
p655
tp656
bsg21
F1.28
sg22
F0.53
sg23
F26.512154
sg24
F10.41
sg25
F104.2542563
sg90
S'PGC44322'
p657
sg26
g27
sg28
I2
sg29
F0.23
sg30
g31
sg32
F13.7
sg33
F194.380024
sg34
F0.02413
ssS'JINGLE48'
p658
(dp659
g3
S'J132145.44+311414.0'
p660
sg5
g6
(g7
(I0
tp661
g9
tp662
Rp663
(I1
(I2
tp664
g16
I00
S'\x05\x81\x95C\xbaf\xfb?C\x8blgP_\xf0?'
p665
tp666
bsg21
F1.24
sg22
F-999.0
sg23
F31.237242
sg24
F10.43
sg25
F104.0855006
sg90
S'PGC46657'
p667
sg26
g27
sg28
I-999
sg29
F0.45
sg30
g31
sg32
F50.7
sg33
F200.439359
sg34
F0.02409
ssS'JINGLE105'
p668
(dp669
g3
S'J132122.24+255703.6'
p670
sg5
g6
(g7
(I0
tp671
g9
tp672
Rp673
(I1
(I2
tp674
g16
I00
S"\x93\x18\x04VD\x86\xe9?\x1a/\xdd$\xd0'\xe8?"
p675
tp676
bsg21
F1.18
sg22
F0.89
sg23
F25.951018
sg24
F10.15
sg25
F143.218201
sg26
g27
sg28
I1
sg29
F-0.2
sg30
g31
sg32
F175.8
sg33
F200.342698
sg34
F0.03345
ssS'JINGLE104'
p677
(dp678
g3
S'J130804.16+340027.3'
p679
sg5
g6
(g7
(I0
tp680
g9
tp681
Rp682
(I1
(I2
tp683
g16
I00
S'\x16\xd9\xce\xf7\x90\x1b\xf8?\x03V\x0e\xad\xc9\x1a\xf1?'
p684
tp685
bsg21
F1.53
sg22
F-999.0
sg23
F34.007592
sg24
F10.96
sg25
F142.0578525
sg26
g27
sg28
I-999
sg29
F-1.17
sg30
g31
sg32
F21.6
sg33
F197.017352
sg34
F0.03317
ssS'JINGLE8'
p686
(dp687
g3
S'J091642.17+001220.0'
p688
sg5
g6
(g7
(I0
tp689
g9
tp690
Rp691
(I1
(I2
tp692
g16
I00
S'\xb6\xf3\xfdT\xcd\x1e\xf2?\xb5\xf3\xfd\xd4;1\xe8?'
p693
tp694
bsg21
F1.12
sg22
F1.89
sg23
F0.205565
sg24
F10.0
sg25
F73.364839
sg26
g27
sg28
I1
sg29
F-0.42
sg30
g265
sg32
F151.4
sg33
F139.175748
sg34
F0.01686
ssS'JINGLE9'
p695
(dp696
g3
S'J131547.11+315047.1'
p697
sg5
g6
(g7
(I0
tp698
g9
tp699
Rp700
(I1
(I2
tp701
g16
I00
S'\xaeG\xe1z\xd7u\xff?G\xe1z\x14\xd6\xe2\xea?'
p702
tp703
bsg21
F0.72
sg22
F-999.0
sg23
F31.846422
sg24
F9.66
sg25
F73.87829
sg90
S'PGC46145'
p704
sg26
g27
sg28
I-999
sg29
F-0.08
sg30
g31
sg32
F64.8
sg33
F198.946297
sg34
F0.01698
ssS'JINGLE101'
p705
(dp706
g3
S'J142227.60+000332.5'
p707
sg5
g6
(g7
(I0
tp708
g9
tp709
Rp710
(I1
(I2
tp711
g16
I00
S'\x8bl\xe7\xfbs\x98\xee?+\x87\x16\xd9\xf6\x92\xe7?'
p712
tp713
bsg21
F1.26
sg22
F0.99
sg23
F0.059047
sg24
F10.62
sg25
F135.830976
sg26
g27
sg28
I1
sg29
F0.96
sg30
g53
sg32
F37.4
sg33
F215.615035
sg34
F0.03167
ssS'JINGLE100'
p714
(dp715
g3
S'J125902.07+280656.3'
p716
sg5
g6
(g7
(I0
tp717
g9
tp718
Rp719
(I1
(I2
tp720
g16
I00
S'\x82\xc0\xca\xa1\xaa\t\xe8?Zd;\xdf\xea9\xe5?'
p721
tp722
bsg21
F0.79
sg22
F-999.0
sg23
F28.115665
sg24
F9.95
sg25
F134.7498094
sg90
S'PGC44535'
p723
sg26
g27
sg28
I-999
sg29
F0.57
sg30
g31
sg32
F37.9
sg33
F194.758627
sg34
F0.03141
ssS'JINGLE103'
p724
(dp725
g3
S'J131437.78+275044.0'
p726
sg5
g6
(g7
(I0
tp727
g9
tp728
Rp729
(I1
(I2
tp730
g16
I00
S'\x1e\x85\xebQa\x89\xee?\xdfO\x8d\x17\xf2A\xd7?'
p731
tp732
bsg21
F1.1
sg22
F1.43
sg23
F27.845567
sg24
F10.13
sg25
F140.233177
sg26
g27
sg28
I1
sg29
F0.06
sg30
g31
sg32
F78.4
sg33
F198.657419
sg34
F0.03273
ssS'JINGLE102'
p733
(dp734
g3
S'J132352.51+310134.8'
p735
sg5
g6
(g7
(I0
tp736
g9
tp737
Rp738
(I1
(I2
tp739
g16
I00
S'A`\xe5\xd0):\xe6?\xf5(\\\x8f\xf8N\xde?'
p740
tp741
bsg21
F0.92
sg22
F-999.0
sg23
F31.026337
sg24
F10.13
sg25
F201.130147
sg26
g27
sg28
I-999
sg29
F0.67
sg30
g31
sg32
F78.3
sg33
F200.968796
sg34
F0.04762
ssS'JINGLE2'
p742
(dp743
g3
S'J131526.03+330926.0'
p744
sg5
g6
(g7
(I0
tp745
g9
tp746
Rp747
(I1
(I2
tp748
g16
I00
S'W9\xb4H\x8e;\xf4?h\x91\xed|\x9d)\xe0?'
p749
tp750
bsg21
F0.69
sg22
F-999.0
sg23
F33.157243
sg24
F9.3
sg25
F70.71007545
sg26
g27
sg28
I-999
sg29
F-1.07
sg30
g31
sg32
F105.1
sg33
F198.858476
sg34
F0.01624
ssS'JINGLE3'
p751
(dp752
g3
S'J125606.09+274041.1'
p753
sg5
g6
(g7
(I0
tp754
g9
tp755
Rp756
(I1
(I2
tp757
g16
I00
S'W9\xb4\xc8\xd4\xb2\xee?\xd6\xa3p\xbd\xf2Y\xe5?'
p758
tp759
bsg21
F0.35
sg22
F-999.0
sg23
F27.678102
sg24
F9.04
sg25
F71.73810993
sg90
S'PGC44105'
p760
sg26
g27
sg28
I-999
sg29
F-0.0
sg30
g31
sg32
F166.9
sg33
F194.025406
sg34
F0.01648
ssS'JINGLE0'
p761
(dp762
g3
S'J131616.82+252418.7'
p763
sg5
g6
(g7
(I0
tp764
g9
tp765
Rp766
(I1
(I2
tp767
g16
I00
S'rh\x91\xed\x8a=\x0e@`\xe5\xd0"\xdb\xf9\xe4?'
p768
tp769
bsg21
F1.33
sg22
F0.54
sg23
F25.405219
sg24
F10.38
sg25
F56.525201
sg90
S'PGC46186'
p770
sg26
g27
sg28
I3
sg29
F-0.1
sg30
g31
sg32
F46.0
sg33
F199.070117
sg34
F0.01294
ssS'JINGLE1'
p771
(dp772
g3
S'J131453.43+270029.2'
p773
sg5
g6
(g7
(I0
tp774
g9
tp775
Rp776
(I1
(I2
tp777
g16
I00
S'\xd0"\xdb\xf9\xad$\x01@\x99\x99\x99\x994F\xe9?'
p778
tp779
bsg21
F1.29
sg22
F4.35
sg23
F27.008122
sg24
F10.03
sg25
F67.279784
sg90
S'PGC46076'
p780
sg26
g27
sg28
I1
sg29
F-1.03
sg30
g31
sg32
F142.7
sg33
F198.722639
sg34
F0.01544
ssS'JINGLE6'
p781
(dp782
g3
S'J132320.14+320349.0'
p783
sg5
g6
(g7
(I0
tp784
g9
tp785
Rp786
(I1
(I2
tp787
g16
I00
S'\xdd$\x06\x81\xbd^\xfd?\x89A`\xe5\xd0"\xe3?'
p788
tp789
bsg21
F0.73
sg22
F-999.0
sg23
F32.063614
sg24
F9.44
sg25
F72.76565907
sg26
g27
sg28
I-999
sg29
F-0.77
sg30
g31
sg32
F132.8
sg33
F200.833956
sg34
F0.01672
ssS'JINGLE7'
p790
(dp791
g3
S'J132051.75+312159.8'
p792
sg5
g6
(g7
(I0
tp793
g9
tp794
Rp795
(I1
(I2
tp796
g16
I00
S'n\x12\x83\xc0\xf9\x1b\xf2?)\\\x8f\xc2\x974\xde?'
p797
tp798
bsg21
F0.79
sg22
F-999.0
sg23
F31.366615
sg24
F9.64
sg25
F73.27925174
sg26
g27
sg28
I-999
sg29
F-0.39
sg30
g31
sg32
F131.2
sg33
F200.215627
sg34
F0.01684
ssS'JINGLE4'
p799
(dp800
g3
S'J132134.91+261816.8'
p801
sg5
g6
(g7
(I0
tp802
g9
tp803
Rp804
(I1
(I2
tp805
g16
I00
S'\xd2Mb\x10\x873\xf2?t\x93\x18\x84>\x91\xe0?'
p806
tp807
bsg21
F0.97
sg22
F1.39
sg23
F26.304666
sg24
F9.92
sg25
F71.909402
sg26
g27
sg28
I1
sg29
F-0.14
sg30
g31
sg32
F56.5
sg33
F200.395485
sg34
F0.01652
ssS'JINGLE5'
p808
(dp809
g3
S'J091728.99-003714.1'
p810
sg5
g6
(g7
(I0
tp811
g9
tp812
Rp813
(I1
(I2
tp814
g16
I00
S'\xbe\x9f\x1a/\x0c\x1f\x03@\xaa\xf1\xd2\xcd\xde\xe0\xe2?'
p815
tp816
bsg21
F1.1
sg22
F3.86
sg23
F-0.620583
sg24
F10.11
sg25
F72.16631437
sg90
S'PGC26234'
p817
sg26
g27
sg28
I3
sg29
F-0.0
sg30
g265
sg32
F117.9
sg33
F139.370821
sg34
F0.01658
ssS'JINGLE76'
p818
(dp819
g3
S'J125835.18+273547.0'
p820
sg5
g6
(g7
(I0
tp821
g9
tp822
Rp823
(I1
(I2
tp824
g16
I00
S'}?5^\x11\xdf\xfa?C\x8bl\xe7`\xfd\xf3?'
p825
tp826
bsg21
F1.43
sg22
F-999.0
sg23
F27.596408
sg24
F10.81
sg25
F110.6151549
sg90
S'PGC44481'
p827
sg26
g27
sg28
I-999
sg29
F0.64
sg30
g31
sg32
F71.3
sg33
F194.646608
sg34
F0.02564
ssS'JINGLE77'
p828
(dp829
g3
S'J132856.70+325244.0'
p830
sg5
g6
(g7
(I0
tp831
g9
tp832
Rp833
(I1
(I2
tp834
g16
I00
S'\xc9v\xbe\x1f\x03\xb2\xf3?J\x0c\x02+\xe5\x8a\xf1?'
p835
tp836
bsg21
F1.24
sg22
F-999.0
sg23
F32.878888
sg24
F10.53
sg25
F110.6151549
sg26
g27
sg28
I-999
sg29
F0.78
sg30
g31
sg32
F138.2
sg33
F202.236268
sg34
F0.02564
ssS'JINGLE74'
p837
(dp838
g3
S'J125837.28+271035.8'
p839
sg5
g6
(g7
(I0
tp840
g9
tp841
Rp842
(I1
(I2
tp843
g16
I00
S'\xa1E\xb6\xf33.\xeb?W9\xb4\xc8@e\xe5?'
p844
tp845
bsg21
F0.61
sg22
F0.8
sg23
F27.176613
sg24
F9.62
sg25
F110.320693
sg90
S'PGC44486'
p846
sg26
g27
sg28
I1
sg29
F0.29
sg30
g31
sg32
F13.6
sg33
F194.655342
sg34
F0.02557
ssS'JINGLE75'
p847
(dp848
g3
S'J133538.40+255230.9'
p849
sg5
g6
(g7
(I0
tp850
g9
tp851
Rp852
(I1
(I2
tp853
g16
I00
S'\x86\x16\xd9\xce\xc8Y\xfc?\xe6\xfb\xa9\xf1>\x00\xe8?'
p854
tp855
bsg21
F1.42
sg22
F2.05
sg23
F25.875259
sg24
F10.43
sg25
F110.531027
sg26
g27
sg28
I1
sg29
F-0.48
sg30
g31
sg32
F62.2
sg33
F203.910036
sg34
F0.02562
ssS'JINGLE72'
p856
(dp857
g3
S'J130037.86+280328.6'
p858
sg5
g6
(g7
(I0
tp859
g9
tp860
Rp861
(I1
(I2
tp862
g16
I00
S'\x00\x00\x00\x80T\xb5\xf5?\xb4\xc8v\xbe\xd5s\xe3?'
p863
tp864
bsg21
F0.71
sg22
F-999.0
sg23
F28.057967
sg24
F9.92
sg25
F110.1524107
sg90
S'PGC44789'
p865
sg26
g27
sg28
I-999
sg29
F0.79
sg30
g31
sg32
F151.0
sg33
F195.157753
sg34
F0.02553
ssS'JINGLE73'
p866
(dp867
g3
S'J122337.49-002821.3'
p868
sg5
g6
(g7
(I0
tp869
g9
tp870
Rp871
(I1
(I2
tp872
g16
I00
S'\x9f\x1a/]C\xe2\xf0?\x93\x18\x04Vz\xdf\xe4?'
p873
tp874
bsg21
F0.79
sg22
F-999.0
sg23
F-0.472588
sg24
F9.74
sg25
F110.1944825
sg90
S'PGC40250'
p875
sg26
g27
sg28
I-999
sg29
F-0.08
sg30
g119
sg32
F129.1
sg33
F185.90621
sg34
F0.02554
ssS'JINGLE70'
p876
(dp877
g3
S'J133238.95+252628.2'
p878
sg5
g6
(g7
(I0
tp879
g9
tp880
Rp881
(I1
(I2
tp882
g16
I00
S'\x97n\x12\x83\x04b\xfb?\xb2\x9d\xef\'\x14"\xf0?'
p883
tp884
bsg21
F1.49
sg22
F-999.0
sg23
F25.441171
sg24
F10.6
sg25
F108.1320013
sg26
g27
sg28
I-999
sg29
F-0.81
sg30
g31
sg32
F151.5
sg33
F203.162318
sg34
F0.02505
ssS'JINGLE71'
p885
(dp886
g3
S'J141658.36+013825.5'
p887
sg5
g6
(g7
(I0
tp888
g9
tp889
Rp890
(I1
(I2
tp891
g16
I00
S'\xdd$\x06\x81\xfa\x96\xe8?b\x10X9\xea!\xe7?'
p892
tp893
bsg21
F0.65
sg22
F1.39
sg23
F1.640432
sg24
F9.66
sg25
F108.174112
sg26
g27
sg28
I1
sg29
F0.24
sg30
g53
sg32
F65.8
sg33
F214.243189
sg34
F0.02506
ssS'JINGLE78'
p894
(dp895
g3
S'J141330.00+001109.0'
p896
sg5
g6
(g7
(I0
tp897
g9
tp898
Rp899
(I1
(I2
tp900
g16
I00
S'?5^\xba\x1a\x12\xf4?\xdb\xf9~j\xebn\xd6?'
p901
tp902
bsg21
F0.93
sg22
F-999.0
sg23
F0.185844
sg24
F9.79
sg25
F111.0357452
sg26
g27
sg28
I-999
sg29
F-0.42
sg30
g53
sg32
F36.2
sg33
F213.375002
sg34
F0.02574
ssS'JINGLE79'
p903
(dp904
g3
S'J134018.24+320911.2'
p905
sg5
g6
(g7
(I0
tp906
g9
tp907
Rp908
(I1
(I2
tp909
g16
I00
S'\\\x8f\xc2\xf5\xbc\xa9\xf0?\xe1z\x14\xaev\xdb\xe3?'
p910
tp911
bsg21
F0.99
sg22
F-999.0
sg23
F32.153136
sg24
F9.84
sg25
F111.2039584
sg26
g27
sg28
I-999
sg29
F-0.45
sg30
g31
sg32
F75.4
sg33
F205.076024
sg34
F0.02578
ssS'JINGLE116'
p912
(dp913
g3
S'J130919.67+343451.4'
p914
sg5
g6
(g7
(I0
tp915
g9
tp916
Rp917
(I1
(I2
tp918
g16
I00
S'\x03V\x0e-\x83#\xf2?\xa7\xc6K\xb7B\xca\xe2?'
p919
tp920
bsg21
F1.51
sg22
F-999.0
sg23
F34.580954
sg24
F10.8
sg25
F148.0600034
sg26
g27
sg28
I-999
sg29
F-0.91
sg30
g31
sg32
F69.9
sg33
F197.331976
sg34
F0.03462
ssS'JINGLE117'
p921
(dp922
g3
S'J134140.38+255326.9'
p923
sg5
g6
(g7
(I0
tp924
g9
tp925
Rp926
(I1
(I2
tp927
g16
I00
S'U\x0e-\xb2\t\xa2\xe7?y\xe9&\xb1\x84|\xe0?'
p928
tp929
bsg21
F0.75
sg22
F-999.0
sg23
F25.890815
sg24
F9.48
sg25
F148.2666741
sg26
g27
sg28
I-999
sg29
F-0.72
sg30
g31
sg32
F97.5
sg33
F205.418286
sg34
F0.03467
ssS'JINGLE114'
p930
(dp931
g3
S'J133933.35+295949.4'
p932
sg5
g6
(g7
(I0
tp933
g9
tp934
Rp935
(I1
(I2
tp936
g16
I00
S'\xce\xf7S\xe3\xd4\x15\xf0?Mb\x10X\xe2\x1e\xea?'
p937
tp938
bsg21
F1.53
sg22
F1.96
sg23
F29.997077
sg24
F11.17
sg25
F147.398523
sg26
g27
sg28
I1
sg29
F-0.47
sg30
g31
sg32
F125.1
sg33
F204.888956
sg34
F0.03446
ssS'JINGLE115'
p939
(dp940
g3
S'J130856.37+282409.4'
p941
sg5
g6
(g7
(I0
tp942
g9
tp943
Rp944
(I1
(I2
tp945
g16
I00
S'\x91\xed|?\xf1F\xec?\xfe\xd4x\xe9&1\xd0?'
p946
tp947
bsg21
F1.1
sg22
F-999.0
sg23
F28.40262
sg24
F10.0
sg25
F147.8533127
sg26
g27
sg28
I-999
sg29
F-0.35
sg30
g31
sg32
F92.4
sg33
F197.234887
sg34
F0.03457
ssS'JINGLE112'
p948
(dp949
g3
S'J132619.34+261440.0'
p950
sg5
g6
(g7
(I0
tp951
g9
tp952
Rp953
(I1
(I2
tp954
g16
I00
S"\xcf\xf7S\xe3G'\xf2?W9\xb4\xc8}\x1d\xdc?"
p955
tp956
bsg21
F0.99
sg22
F0.96
sg23
F26.244459
sg24
F9.84
sg25
F145.868066
sg26
g27
sg28
I2
sg29
F-0.46
sg30
g31
sg32
F3.1
sg33
F201.58059
sg34
F0.03409
ssS'JINGLE113'
p957
(dp958
g3
S'J132151.16+322612.6'
p959
sg5
g6
(g7
(I0
tp960
g9
tp961
Rp962
(I1
(I2
tp963
g16
I00
S'\xebQ\xb8\x9e\x01<\xf2?\x9d\xef\xa7\xc6\x88\xef\xd8?'
p964
tp965
bsg21
F1.19
sg22
F-999.0
sg23
F32.436846
sg24
F10.14
sg25
F146.5713847
sg26
g27
sg28
I-999
sg29
F-0.25
sg30
g31
sg32
F159.8
sg33
F200.463201
sg34
F0.03426
ssS'JINGLE110'
p966
(dp967
g3
S'J131239.04+340354.5'
p968
sg5
g6
(g7
(I0
tp969
g9
tp970
Rp971
(I1
(I2
tp972
g16
I00
S'\x0e-\xb2\x9d\x1e"\xf4?\xcb\xa1E\xb6\xc4\x03\xe7?'
p973
tp974
bsg21
F0.72
sg22
F-999.0
sg23
F34.065152
sg24
F9.68
sg25
F145.661163
sg26
g27
sg28
I-999
sg29
F0.01
sg30
g31
sg32
F124.8
sg33
F198.162676
sg34
F0.03404
ssS'JINGLE111'
p975
(dp976
g3
S'J130801.65+264555.3'
p977
sg5
g6
(g7
(I0
tp978
g9
tp979
Rp980
(I1
(I2
tp981
g16
I00
S'-\xb2\x9do\x90\xc9\xf3?\xd7\xa3p\xbd!\xd4\xf0?'
p982
tp983
bsg21
F1.42
sg22
F0.89
sg23
F26.765377
sg24
F10.66
sg25
F145.743926
sg90
S'PGC45509'
p984
sg26
g27
sg28
I1
sg29
F0.25
sg30
g31
sg32
F45.3
sg33
F197.006892
sg34
F0.03406
ssS'JINGLE118'
p985
(dp986
g3
S'J134308.83+302015.8'
p987
sg5
g6
(g7
(I0
tp988
g9
tp989
Rp990
(I1
(I2
tp991
g16
I00
S'\xaa\xf1\xd2M\x91\x8a\xff?\xc4 \xb0r9\x97\xf9?'
p992
tp993
bsg21
F1.47
sg22
F-999.0
sg23
F30.337732
sg24
F11.14
sg25
F148.5559794
sg90
S'PGC48597'
p994
sg26
g27
sg28
I-999
sg29
F1.2
sg30
g31
sg32
F174.6
sg33
F205.786813
sg34
F0.03474
ssS'JINGLE119'
p995
(dp996
g3
S'J134229.72+341303.4'
p997
sg5
g6
(g7
(I0
tp998
g9
tp999
Rp1000
(I1
(I2
tp1001
g16
I00
S'\x0c\x02+\x87\xaa&\xeb?p=\n\xd7\xd9\xc9\xd8?'
p1002
tp1003
bsg21
F0.92
sg22
F-999.0
sg23
F34.217636
sg24
F9.79
sg25
F148.7626022
sg26
g27
sg28
I-999
sg29
F-0.39
sg30
g31
sg32
F9.5
sg33
F205.623844
sg34
F0.03479
ssS'JINGLE69'
p1004
(dp1005
g3
S'J133303.09+343301.3'
p1006
sg5
g6
(g7
(I0
tp1007
g9
tp1008
Rp1009
(I1
(I2
tp1010
g16
I00
S'\x8bl\xe7\xfbs\x18\xf3?\xb5\xf3\xfd\xd4I\xef\xd7?'
p1011
tp1012
bsg21
F0.79
sg22
F-999.0
sg23
F34.550381
sg24
F9.63
sg25
F107.7950825
sg26
g27
sg28
I-999
sg29
F-0.4
sg30
g31
sg32
F145.3
sg33
F203.262898
sg34
F0.02497
ssS'JINGLE68'
p1013
(dp1014
g3
S'J133306.57+330903.7'
p1015
sg5
g6
(g7
(I0
tp1016
g9
tp1017
Rp1018
(I1
(I2
tp1019
g16
I00
S'\x9a\x99\x99\x19\x1d\xc9\xf5?3333b-\xf0?'
p1020
tp1021
bsg21
F0.99
sg22
F-999.0
sg23
F33.151051
sg24
F9.99
sg25
F107.7529639
sg26
g27
sg28
I-999
sg29
F0.02
sg30
g31
sg32
F29.7
sg33
F203.277383
sg34
F0.02496
ssS'JINGLE61'
p1022
(dp1023
g3
S'J125453.68+282501.1'
p1024
sg5
g6
(g7
(I0
tp1025
g9
tp1026
Rp1027
(I1
(I2
tp1028
g16
I00
S'\xbaI\x0c\x82\xe4\x8f\xf6? \xb0rh\x98L\xec?'
p1029
tp1030
bsg21
F1.4
sg22
F-999.0
sg23
F28.416977
sg24
F10.42
sg25
F106.2782964
sg26
g27
sg28
I-999
sg29
F-0.39
sg30
g31
sg32
F163.6
sg33
F193.723678
sg34
F0.02461
ssS'JINGLE60'
p1031
(dp1032
g3
S'J092143.23+024127.1'
p1033
sg5
g6
(g7
(I0
tp1034
g9
tp1035
Rp1036
(I1
(I2
tp1037
g16
I00
S'C\x8bl\xe7\xfb\xa9\xe1?\xf7S\xe3\xa5\x00\x18\xd5?'
p1038
tp1039
bsg21
F0.58
sg22
F0.67
sg23
F2.690873
sg24
F9.44
sg25
F106.193999
sg26
g27
sg28
I2
sg29
F-0.16
sg30
g265
sg32
F122.6
sg33
F140.430129
sg34
F0.02459
ssS'JINGLE63'
p1040
(dp1041
g3
S'J132804.03+333535.5'
p1042
sg5
g6
(g7
(I0
tp1043
g9
tp1044
Rp1045
(I1
(I2
tp1046
g16
I00
S'\xac\x1cZd\x05\x86\xe8?\xbct\x93\x18\xd5[\xe5?'
p1047
tp1048
bsg21
F0.5
sg22
F-999.0
sg23
F33.593198
sg24
F9.35
sg25
F106.4890249
sg26
g27
sg28
I-999
sg29
F-0.01
sg30
g31
sg32
F138.8
sg33
F202.016808
sg34
F0.02466
ssS'JINGLE62'
p1049
(dp1050
g3
S'J133013.64+262021.8'
p1051
sg5
g6
(g7
(I0
tp1052
g9
tp1053
Rp1054
(I1
(I2
tp1055
g16
I00
S'1\x08\xac\x1c\xb8X\xe0?\xe4\xd0"\xdb^\xd2\xcc?'
p1056
tp1057
bsg21
F0.6
sg22
F-999.0
sg23
F26.339391
sg24
F9.13
sg25
F106.4468808
sg26
g27
sg28
I-999
sg29
F-1.22
sg30
g31
sg32
F146.8
sg33
F202.556844
sg34
F0.02465
ssS'JINGLE65'
p1058
(dp1059
g3
S'J132202.09+311642.1'
p1060
sg5
g6
(g7
(I0
tp1061
g9
tp1062
Rp1063
(I1
(I2
tp1064
g16
I00
S'\xbct\x93\x18i\xa9\xee?\x8d\x97n\x92d\xe4\xe1?'
p1065
tp1066
bsg21
F1.22
sg22
F-999.0
sg23
F31.278382
sg24
F10.26
sg25
F107.1210869
sg26
g27
sg28
I-999
sg29
F-0.01
sg30
g31
sg32
F28.3
sg33
F200.508737
sg34
F0.02481
ssS'JINGLE64'
p1067
(dp1068
g3
S'J125818.62+271838.9'
p1069
sg5
g6
(g7
(I0
tp1070
g9
tp1071
Rp1072
(I1
(I2
tp1073
g16
I00
S'\xbaI\x0c\x02+\x87\xe5?\x81\x95C\x8b\xd1:\xe1?'
p1074
tp1075
bsg21
F0.65
sg22
F0.77
sg23
F27.310822
sg24
F9.59
sg25
F106.741872
sg26
g27
sg28
I2
sg29
F-0.01
sg30
g31
sg32
F151.8
sg33
F194.577616
sg34
F0.02472
ssS'JINGLE67'
p1076
(dp1077
g3
S'J133619.63+332524.3'
p1078
sg5
g6
(g7
(I0
tp1079
g9
tp1080
Rp1081
(I1
(I2
tp1082
g16
I00
S'l\xe7\xfb\xa9\x93\x1e\x03@\xdd$\x06\x81\xec\xd8\xe8?'
p1083
tp1084
bsg21
F1.5
sg22
F-999.0
sg23
F33.423438
sg24
F10.76
sg25
F107.6266033
sg26
g27
sg28
I-999
sg29
F-0.84
sg30
g31
sg32
F79.3
sg33
F204.081827
sg34
F0.02493
ssS'JINGLE66'
p1085
(dp1086
g3
S'J131432.45+304220.8'
p1087
sg5
g6
(g7
(I0
tp1088
g9
tp1089
Rp1090
(I1
(I2
tp1091
g16
I00
S'y\xe9&1\xd2\xd2\xfa?\x9f\x1a/\xdd\xc6\x91\xf6?'
p1092
tp1093
bsg21
F1.5
sg22
F-999.0
sg23
F30.705784
sg24
F10.86
sg25
F107.5423588
sg90
S'PGC46046'
p1094
sg26
g27
sg28
I-999
sg29
F-0.31
sg30
g31
sg32
F91.9
sg33
F198.635228
sg34
F0.02491
ssS'JINGLE189'
p1095
(dp1096
g3
S'J131615.95+301552.2'
p1097
sg5
g6
(g7
(I0
tp1098
g9
tp1099
Rp1100
(I1
(I2
tp1101
g16
I00
S'\xfe\xd4x\xe9-\x10\xf0?\x8bl\xe7\xfbe\xda\xee?'
p1102
tp1103
bsg21
F1.32
sg22
F-999.0
sg23
F30.264521
sg24
F10.76
sg25
F207.4503829
sg26
g27
sg28
I-999
sg29
F1.14
sg30
g31
sg32
F119.1
sg33
F199.06647
sg34
F0.04919
ssS'JINGLE188'
p1104
(dp1105
g3
S'J131040.48+321341.7'
p1106
sg5
g6
(g7
(I0
tp1107
g9
tp1108
Rp1109
(I1
(I2
tp1110
g16
I00
S'~j\xbct\xbb\xb3\xea?=\n\xd7\xa3\x04\x8b\xdd?'
p1111
tp1112
bsg21
F1.05
sg22
F-999.0
sg23
F32.228256
sg24
F10.21
sg25
F206.3245933
sg26
g27
sg28
I-999
sg29
F0.48
sg30
g31
sg32
F20.9
sg33
F197.668685
sg34
F0.04891
ssS'JINGLE185'
p1113
(dp1114
g3
S'J130926.35+282457.0'
p1115
sg5
g6
(g7
(I0
tp1116
g9
tp1117
Rp1118
(I1
(I2
tp1119
g16
I00
S'-\xb2\x9d\xef\x05\xbb\xf9?\xc2\xf5(\\Yi\xde?'
p1120
tp1121
bsg21
F1.34
sg22
F-999.0
sg23
F28.415857
sg24
F10.34
sg25
F89.52303083
sg26
g27
sg28
I-999
sg29
F-0.29
sg30
g31
sg32
F108.4
sg33
F197.359805
sg34
F0.02065
ssS'JINGLE184'
p1122
(dp1123
g3
S'J115723.03+002913.9'
p1124
sg5
g6
(g7
(I0
tp1125
g9
tp1126
Rp1127
(I1
(I2
tp1128
g16
I00
S'\xa7\xc6K7\x89\xc1\xf1?\xac\x1cZ\xe4\x88\xb5\xe2?'
p1129
tp1130
bsg21
F1.42
sg22
F-999.0
sg23
F0.487214
sg24
F10.7
sg25
F199.9203023
sg26
g27
sg28
I-999
sg29
F0.34
sg30
g119
sg32
F156.6
sg33
F179.345971
sg34
F0.04732
ssS'JINGLE187'
p1131
(dp1132
g3
S'J141628.95-004437.9'
p1133
sg5
g6
(g7
(I0
tp1134
g9
tp1135
Rp1136
(I1
(I2
tp1137
g16
I00
S'\xdb\xf9~\xea\xa4w\xf7?"\xdb\xf9~j\xbc\xe7?'
p1138
tp1139
bsg21
F1.49
sg22
F-999.0
sg23
F-0.743875
sg24
F10.94
sg25
F205.640785
sg26
g27
sg28
I-999
sg29
F0.16
sg30
g53
sg32
F173.4
sg33
F214.12063
sg34
F0.04874
ssS'JINGLE186'
p1140
(dp1141
g3
S'J132035.40+340821.7'
p1142
sg5
g6
(g7
(I0
tp1143
g9
tp1144
Rp1145
(I1
(I2
tp1146
g16
I00
S'\xe4\xd0"\xdb\xb5g\xef?\xfc\xa9\xf1\xd2u\xfd\xeb?'
p1147
tp1148
bsg21
F0.9
sg22
F-999.0
sg23
F34.139376
sg24
F10.36
sg25
F99.73549765
sg90
S'PGC46560'
p1149
sg26
g27
sg28
I-999
sg29
F1.48
sg30
g31
sg32
F4.4
sg33
F200.147526
sg34
F0.02306
ssS'JINGLE181'
p1150
(dp1151
g3
S'J115104.55+001454.2'
p1152
sg5
g6
(g7
(I0
tp1153
g9
tp1154
Rp1155
(I1
(I2
tp1156
g16
I00
S'L7\x89\xc1\xad\xbb\xe4?l\xe7\xfb\xa9 \xcd\xd6?'
p1157
tp1158
bsg21
F1.37
sg22
F0.61
sg23
F0.248408
sg24
F10.38
sg25
F198.5886723
sg26
g27
sg28
I2
sg29
F-0.31
sg30
g119
sg32
F160.5
sg33
F177.768969
sg34
F0.04699
ssS'JINGLE180'
p1159
(dp1160
g3
S'J133451.23+340319.8'
p1161
sg5
g6
(g7
(I0
tp1162
g9
tp1163
Rp1164
(I1
(I2
tp1165
g16
I00
S'v\xbe\x9f\x1a!\x1f\xfb?`\xe5\xd0"oG\xde?'
p1166
tp1167
bsg21
F1.29
sg22
F-999.0
sg23
F34.055519
sg24
F10.38
sg25
F108.300441
sg26
g27
sg28
I-999
sg29
F0.06
sg30
g31
sg32
F77.4
sg33
F203.713482
sg34
F0.02509
ssS'JINGLE183'
p1168
(dp1169
g3
S'J132359.95+305556.7'
p1170
sg5
g6
(g7
(I0
tp1171
g9
tp1172
Rp1173
(I1
(I2
tp1174
g16
I00
S'p=\n\xd70_\xfb?\xb0rh\x91\xbe\x82\xda?'
p1175
tp1176
bsg21
F1.41
sg22
F-999.0
sg23
F30.932421
sg24
F10.53
sg25
F96.43548812
sg26
g27
sg28
I-999
sg29
F-0.12
sg30
g31
sg32
F28.1
sg33
F200.999804
sg34
F0.02228
ssS'JINGLE182'
p1177
(dp1178
g3
S'J113725.46-014714.3'
p1179
sg5
g6
(g7
(I0
tp1180
g9
tp1181
Rp1182
(I1
(I2
tp1183
g16
I00
S'\x0c\x02+\x07.V\xf5?\x9f\x1a/\xdd\xbf\xb2\xd6?'
p1184
tp1185
bsg21
F1.49
sg22
F-999.0
sg23
F-1.787311
sg24
F10.86
sg25
F198.629037
sg26
g27
sg28
I-999
sg29
F-0.04
sg30
g119
sg32
F0.3
sg33
F174.356092
sg34
F0.047
ssS'JINGLE18'
p1186
(dp1187
g3
S'J120803.96+004151.2'
p1188
sg5
g6
(g7
(I0
tp1189
g9
tp1190
Rp1191
(I1
(I2
tp1192
g16
I00
S'\x03V\x0e-\xf6\xb4\xef?\xd7\xa3p\xbd(\xb3\xe0?'
p1193
tp1194
bsg21
F0.44
sg22
F1.04
sg23
F0.697576
sg24
F9.11
sg25
F85.356437
sg26
g27
sg28
I1
sg29
F-0.38
sg30
g119
sg32
F161.5
sg33
F182.016508
sg34
F0.01967
ssS'JINGLE19'
p1195
(dp1196
g3
S'J125818.23+290743.6'
p1197
sg5
g6
(g7
(I0
tp1198
g9
tp1199
Rp1200
(I1
(I2
tp1201
g16
I00
S'1\x08\xac\x1c\xb8\xd8\xfb?\xff\xff\xff\xff<\xb8\xed?'
p1202
tp1203
bsg21
F1.4
sg22
F-999.0
sg23
F29.128783
sg24
F10.53
sg25
F113.5155601
sg26
g27
sg28
I-999
sg29
F-0.03
sg30
g31
sg32
F25.4
sg33
F194.575995
sg34
F0.02633
ssS'JINGLE14'
p1204
(dp1205
g3
S'J131721.28+310334.1'
p1206
sg5
g6
(g7
(I0
tp1207
g9
tp1208
Rp1209
(I1
(I2
tp1210
g16
I00
S'\x02+\x87\x16\xe0-\xf2?\x16\xd9\xce\xf7\xb1\xd7\xe3?'
p1211
tp1212
bsg21
F0.63
sg22
F-999.0
sg23
F31.059485
sg24
F9.49
sg25
F80.67009788
sg26
g27
sg28
I-999
sg29
F-0.21
sg30
g31
sg32
F86.0
sg33
F199.338706
sg34
F0.01857
ssS'JINGLE15'
p1213
(dp1214
g3
S'J090655.44-000152.7'
p1215
sg5
g6
(g7
(I0
tp1216
g9
tp1217
Rp1218
(I1
(I2
tp1219
g16
I00
S'\x8f\xc2\xf5(\xc1\xe2\xf2?\x8f\xc2\xf5(\xfe\x9a\xe9?'
p1220
tp1221
bsg21
F0.58
sg22
F-999.0
sg23
F-0.031306
sg24
F9.52
sg25
F81.01126382
sg26
g27
sg28
I-999
sg29
F0.1
sg30
g265
sg32
F84.6
sg33
F136.731026
sg34
F0.01865
ssS'JINGLE16'
p1222
(dp1223
g3
S'J131620.53+304042.0'
p1224
sg5
g6
(g7
(I0
tp1225
g9
tp1226
Rp1227
(I1
(I2
tp1228
g16
I00
S'j\xbct\x93}\xd7\xf6?\x8f\xc2\xf5(\xc8A\xee?'
p1229
tp1230
bsg21
F1.28
sg22
F-999.0
sg23
F30.678337
sg24
F10.28
sg25
F82.03444022
sg90
S'PGC46196'
p1231
sg26
g27
sg28
I-999
sg29
F-0.18
sg30
g31
sg32
F31.8
sg33
F199.085559
sg34
F0.01889
ssS'JINGLE17'
p1232
(dp1233
g3
S'J130802.57+271840.0'
p1234
sg5
g6
(g7
(I0
tp1235
g9
tp1236
Rp1237
(I1
(I2
tp1238
g16
I00
S'\x7fj\xbc\xf4\xe7M\xf2?b\x10X9\xc2\x86\xdb?'
p1239
tp1240
bsg21
F0.41
sg22
F1.36
sg23
F27.311127
sg24
F9.06
sg25
F85.015953
sg26
g27
sg28
I1
sg29
F-0.38
sg30
g31
sg32
F27.4
sg33
F197.010721
sg34
F0.01959
ssS'JINGLE10'
p1241
(dp1242
g3
S'J091750.80-001642.5'
p1243
sg5
g6
(g7
(I0
tp1244
g9
tp1245
Rp1246
(I1
(I2
tp1247
g16
I00
S'v\xbe\x9f\x1a\x9b\x8f\x01@\x9f\x1a/\xdd\x89Y\xeb?'
p1248
tp1249
bsg21
F1.31
sg22
F4.51
sg23
F-0.278478
sg24
F10.43
sg25
F76.016367
sg90
S'PGC26258'
p1250
sg26
g27
sg28
I3
sg29
F0.16
sg30
g265
sg32
F58.6
sg33
F139.461683
sg34
F0.01748
ssS'JINGLE11'
p1251
(dp1252
g3
S'J131020.14+322859.4'
p1253
sg5
g6
(g7
(I0
tp1254
g9
tp1255
Rp1256
(I1
(I2
tp1257
g16
I00
S'\xc4 \xb0r\x9e*\x06@A`\xe5\xd0Q\xd5\xe1?'
p1258
tp1259
bsg21
F0.97
sg22
F4.32
sg23
F32.483192
sg24
F9.87
sg25
F76.358264
sg90
S'PGC45700'
p1260
sg26
g27
sg28
I3
sg29
F-0.3
sg30
g31
sg32
F13.8
sg33
F197.583921
sg34
F0.01756
ssS'JINGLE12'
p1261
(dp1262
g3
S'J132251.07+314934.3'
p1263
sg5
g6
(g7
(I0
tp1264
g9
tp1265
Rp1266
(I1
(I2
tp1267
g16
I00
S'\xfe\xd4x\xe9\xb3\x9f\xf9?\x8bl\xe7\xfb\xdfJ\xe5?'
p1268
tp1269
bsg21
F0.61
sg22
F-999.0
sg23
F31.826221
sg24
F9.41
sg25
F77.46905889
sg90
S'PGC46736'
p1270
sg26
g27
sg28
I-999
sg29
F-0.4
sg30
g31
sg32
F141.4
sg33
F200.712807
sg34
F0.01782
ssS'JINGLE13'
p1271
(dp1272
g3
S'J114253.92+000942.7'
p1273
sg5
g6
(g7
(I0
tp1274
g9
tp1275
Rp1276
(I1
(I2
tp1277
g16
I00
S'\xcb\xa1E\xb6\x1b\x99\xe9?\\\x8f\xc2uo\xd3\xe1?'
p1278
tp1279
bsg21
F0.5
sg22
F1.1
sg23
F0.161868
sg24
F9.19
sg25
F80.243565
sg26
g27
sg28
I1
sg29
F-0.51
sg30
g119
sg32
F26.2
sg33
F175.724698
sg34
F0.01847
ssS'JINGLE192'
p1280
(dp1281
g3
S'J130850.46+320953.7'
p1282
sg5
g6
(g7
(I0
tp1283
g9
tp1284
Rp1285
(I1
(I2
tp1286
g16
I00
S'\xef\xa7\xc6\xcb\x18\xad\xf6?\xfc\xa9\xf1\xd2\xb9\x14\xe7?'
p1287
tp1288
bsg21
F1.51
sg22
F-999.0
sg23
F32.164931
sg24
F11.33
sg25
F210.6234809
sg26
g27
sg28
I-999
sg29
F0.84
sg30
g31
sg32
F93.6
sg33
F197.210252
sg34
F0.04998
ssS'JINGLE190'
p1289
(dp1290
g3
S'J141605.26-011537.3'
p1291
sg5
g6
(g7
(I0
tp1292
g9
tp1293
Rp1294
(I1
(I2
tp1295
g16
I00
S'\x89A`\xe5\xff\x1c\xca?\x91\xed|?\xa8o\xc9?'
p1296
tp1297
bsg21
F0.75
sg22
F-999.0
sg23
F-1.260378
sg24
F10.16
sg25
F210.1819433
sg26
g27
sg28
I-999
sg29
F1.38
sg30
g53
sg32
F92.5
sg33
F214.021927
sg34
F0.04987
ssS'JINGLE191'
p1298
(dp1299
g3
S'J133213.68+265659.9'
p1300
sg5
g6
(g7
(I0
tp1301
g9
tp1302
Rp1303
(I1
(I2
tp1304
g16
I00
S'\x8f\xc2\xf5\xa8\x15\x98\xf1?\x9a\x99\x99\x99j\x9f\xe4?'
p1305
tp1306
bsg21
F1.26
sg22
F-999.0
sg23
F26.949977
sg24
F10.59
sg25
F150.8277318
sg26
g27
sg28
I-999
sg29
F0.86
sg30
g31
sg32
F158.7
sg33
F203.057038
sg34
F0.03529
ssS'JINGLE94'
p1307
(dp1308
g3
S'J131804.10+335118.2'
p1309
sg5
g6
(g7
(I0
tp1310
g9
tp1311
Rp1312
(I1
(I2
tp1313
g16
I00
S'\x8d\x97n\x12\xb9\x19\xec?\xb0rh\x91\x8f\x88\xd3?'
p1314
tp1315
bsg21
F0.76
sg22
F-999.0
sg23
F33.855077
sg24
F9.54
sg25
F123.4900003
sg26
g27
sg28
I-999
sg29
F-0.59
sg30
g31
sg32
F129.2
sg33
F199.517084
sg34
F0.02871
ssS'JINGLE95'
p1316
(dp1317
g3
S'J131958.56+340209.8'
p1318
sg5
g6
(g7
(I0
tp1319
g9
tp1320
Rp1321
(I1
(I2
tp1322
g16
I00
S'U\x0e-2I\xba\xe6?W9\xb4\xc8@e\xe5?'
p1323
tp1324
bsg21
F0.69
sg22
F-999.0
sg23
F34.036069
sg24
F9.54
sg25
F125.2036279
sg26
g27
sg28
I-999
sg29
F-0.32
sg30
g31
sg32
F100.1
sg33
F199.994007
sg34
F0.02912
ssS'JINGLE96'
p1325
(dp1326
g3
S'J084648.77+001812.6'
p1327
sg5
g6
(g7
(I0
tp1328
g9
tp1329
Rp1330
(I1
(I2
tp1331
g16
I00
S'\xa1E\xb6\xf3\x044\xf4?\xd0"\xdb\xf9\x19\x17\xe9?'
p1332
tp1333
bsg21
F1.1
sg22
F3.48
sg23
F0.303512
sg24
F9.98
sg25
F125.454288
sg26
g27
sg28
I1
sg29
F-0.43
sg30
g265
sg32
F74.6
sg33
F131.703214
sg34
F0.02918
ssS'JINGLE97'
p1334
(dp1335
g3
S'J143245.52+015238.8'
p1336
sg5
g6
(g7
(I0
tp1337
g9
tp1338
Rp1339
(I1
(I2
tp1340
g16
I00
S'\\\x8f\xc2\xf5\xb5J\xec?O\x8d\x97nA}\xe3?'
p1341
tp1342
bsg21
F1.15
sg22
F2.46
sg23
F1.877469
sg24
F10.04
sg25
F127.959284
sg26
g27
sg28
I1
sg29
F-0.42
sg30
g53
sg32
F109.8
sg33
F218.189683
sg34
F0.02978
ssS'JINGLE90'
p1343
(dp1344
g3
S'J133944.15+274635.2'
p1345
sg5
g6
(g7
(I0
tp1346
g9
tp1347
Rp1348
(I1
(I2
tp1349
g16
I00
S'\xb2\x9d\xef\xa72~\xf3?\xbaI\x0c\x82\x0c+\xf2?'
p1350
tp1351
bsg21
F1.06
sg22
F1.7
sg23
F27.776456
sg24
F10.21
sg25
F121.398361
sg90
S'PGC48312'
p1352
sg26
g27
sg28
I1
sg29
F0.43
sg30
g31
sg32
F44.4
sg33
F204.933959
sg34
F0.02821
ssS'JINGLE91'
p1353
(dp1354
g3
S'J114522.07-013354.5'
p1355
sg5
g6
(g7
(I0
tp1356
g9
tp1357
Rp1358
(I1
(I2
tp1359
g16
I00
S'\x7fj\xbct\x9aw\xe3?\xdd$\x06\x817O\xdf?'
p1360
tp1361
bsg21
F0.78
sg22
F-999.0
sg23
F-1.565164
sg24
F9.57
sg25
F121.9842251
sg26
g27
sg28
I-999
sg29
F-0.58
sg30
g119
sg32
F95.5
sg33
F176.341988
sg34
F0.02835
ssS'JINGLE92'
p1362
(dp1363
g3
S'J134017.95+262058.3'
p1364
sg5
g6
(g7
(I0
tp1365
g9
tp1366
Rp1367
(I1
(I2
tp1368
g16
I00
S'\xe5\xd0"[\x18[\x02@\xa1E\xb6\xf3\x91"\xe2?'
p1369
tp1370
bsg21
F1.43
sg22
F3.71
sg23
F26.349554
sg24
F10.59
sg25
F122.193424
sg90
S'PGC48365'
p1371
sg26
g27
sg28
I1
sg29
F-0.09
sg30
g31
sg32
F16.2
sg33
F205.074829
sg34
F0.0284
ssS'JINGLE93'
p1372
(dp1373
g3
S'J114359.62+002540.7'
p1374
sg5
g6
(g7
(I0
tp1375
g9
tp1376
Rp1377
(I1
(I2
tp1378
g16
I00
S'\x99\x99\x99\x99&\x88\xe9?ffff\xcb\xb9\xe4?'
p1379
tp1380
bsg21
F0.63
sg22
F1.11
sg23
F0.427994
sg24
F9.59
sg25
F123.364559
sg26
g27
sg28
I1
sg29
F0.11
sg30
g119
sg32
F7.9
sg33
F175.998435
sg34
F0.02868
ssS'JINGLE98'
p1381
(dp1382
g3
S'J130855.07+290226.7'
p1383
sg5
g6
(g7
(I0
tp1384
g9
tp1385
Rp1386
(I1
(I2
tp1387
g16
I00
S'=\n\xd7\xa3\xdco\xf6?O\x8d\x97n\x0b$\xe8?'
p1388
tp1389
bsg21
F1.28
sg22
F2.51
sg23
F29.040753
sg24
F10.28
sg25
F134.625024
sg90
S'PGC45582'
p1390
sg26
g27
sg28
I1
sg29
F-0.17
sg30
g31
sg32
F92.8
sg33
F197.229465
sg34
F0.03138
ssS'JINGLE99'
p1391
(dp1392
g3
S'J131700.03+340605.9'
p1393
sg5
g6
(g7
(I0
tp1394
g9
tp1395
Rp1396
(I1
(I2
tp1397
g16
I00
S'\xea&1\x08\xe25\x02@~j\xbc\xf4{\x1b\xf0?'
p1398
tp1399
bsg21
F1.5
sg22
F-999.0
sg23
F34.101662
sg24
F10.96
sg25
F134.6666201
sg90
S'PGC46249'
p1400
sg26
g27
sg28
I-999
sg29
F-0.09
sg30
g31
sg32
F67.4
sg33
F199.250137
sg34
F0.03139
ssS'JINGLE87'
p1401
(dp1402
g3
S'J134145.21+270016.9'
p1403
sg5
g6
(g7
(I0
tp1404
g9
tp1405
Rp1406
(I1
(I2
tp1407
g16
I00
S'\x8d\x97n\x12T\xc6\xf9?\xd7\xa3p\xbd(\xb3\xf0?'
p1408
tp1409
bsg21
F1.46
sg22
F1.01
sg23
F27.004709
sg24
F10.63
sg25
F124.4514718
sg26
g27
sg28
I1
sg29
F-0.19
sg30
g31
sg32
F170.4
sg33
F205.438399
sg34
F0.02894
ssS'JINGLE86'
p1410
(dp1411
g3
S'J134051.15+242823.8'
p1412
sg5
g6
(g7
(I0
tp1413
g9
tp1414
Rp1415
(I1
(I2
tp1416
g16
I00
S'\x95C\x8bl\xf59\xf9?$\x06\x81\x95\x06\xd3\xf7?'
p1417
tp1418
bsg21
F1.46
sg22
F2.92
sg23
F24.473293
sg24
F10.79
sg25
F116.495967
sg26
g27
sg28
I1
sg29
F0.29
sg30
g31
sg32
F15.6
sg33
F205.213157
sg34
F0.02704
ssS'JINGLE85'
p1419
(dp1420
g3
S'J132323.00+334326.3'
p1421
sg5
g6
(g7
(I0
tp1422
g9
tp1423
Rp1424
(I1
(I2
tp1425
g16
I00
S'=\n\xd7\xa3:\xe4\xe8?Q\xb8\x1e\x85\xc3\xb6\xe7?'
p1426
tp1427
bsg21
F0.92
sg22
F-999.0
sg23
F33.723991
sg24
F9.95
sg25
F115.2371429
sg26
g27
sg28
I-999
sg29
F0.12
sg30
g31
sg32
F54.7
sg33
F200.845852
sg34
F0.02674
ssS'JINGLE84'
p1428
(dp1429
g3
S'J125810.06+320059.4'
p1430
sg5
g6
(g7
(I0
tp1431
g9
tp1432
Rp1433
(I1
(I2
tp1434
g16
I00
S'\xb5\xf3\xfd\xd4B\x10\xf8?\xc2\xf5(\\\xc5\x1b\xe5?'
p1435
tp1436
bsg21
F1.39
sg22
F1.16
sg23
F32.016518
sg24
F10.5
sg25
F114.481495
sg26
g27
sg28
I3
sg29
F-0.09
sg30
g31
sg32
F155.2
sg33
F194.541933
sg34
F0.02656
ssS'JINGLE83'
p1437
(dp1438
g3
S'J132838.16+333618.3'
p1439
sg5
g6
(g7
(I0
tp1440
g9
tp1441
Rp1442
(I1
(I2
tp1443
g16
I00
S'\xca\xa1E\xb6\x87K\xf0?\x1cZd;6\xe5\xdc?'
p1444
tp1445
bsg21
F1.38
sg22
F-999.0
sg23
F33.605109
sg24
F10.51
sg25
F113.1794811
sg26
g27
sg28
I-999
sg29
F-0.0
sg30
g31
sg32
F148.6
sg33
F202.159035
sg34
F0.02625
ssS'JINGLE82'
p1446
(dp1447
g3
S'J142653.06+005746.3'
p1448
sg5
g6
(g7
(I0
tp1449
g9
tp1450
Rp1451
(I1
(I2
tp1452
g16
I00
S'Nb\x10\xd8\xe4~\xf2?$\x06\x81\x95y\xe4\xd9?'
p1453
tp1454
bsg21
F0.63
sg22
F1.23
sg23
F0.962874
sg24
F9.54
sg25
F112.84335
sg26
g27
sg28
I1
sg29
F-0.07
sg30
g53
sg32
F90.0
sg33
F216.721118
sg34
F0.02617
ssS'JINGLE81'
p1455
(dp1456
g3
S'J133514.79+250241.1'
p1457
sg5
g6
(g7
(I0
tp1458
g9
tp1459
Rp1460
(I1
(I2
tp1461
g16
I00
S'\xf5(\\\x8f\x8c\x9c\xf0?\x01+\x87\x16t{\xeb?'
p1462
tp1463
bsg21
F1.24
sg22
F-999.0
sg23
F25.044749
sg24
F10.36
sg25
F112.5071659
sg26
g27
sg28
I-999
sg29
F0.25
sg30
g31
sg32
F124.2
sg33
F203.811659
sg34
F0.02609
ssS'JINGLE80'
p1464
(dp1465
g3
S'J084325.99+025420.9'
p1466
sg5
g6
(g7
(I0
tp1467
g9
tp1468
Rp1469
(I1
(I2
tp1470
g16
I00
S'S\xe3\xa5\x9b\x9c\x85\xee?G\xe1z\x14I\xf4\xdc?'
p1471
tp1472
bsg21
F1.02
sg22
F1.32
sg23
F2.905821
sg24
F9.87
sg25
F112.339054
sg26
g27
sg28
I1
sg29
F-0.49
sg30
g265
sg32
F42.5
sg33
F130.858324
sg34
F0.02605
ssS'JINGLE123'
p1473
(dp1474
g3
S'J132616.00+333540.8'
p1475
sg5
g6
(g7
(I0
tp1476
g9
tp1477
Rp1478
(I1
(I2
tp1479
g16
I00
S'\xe6\xfb\xa9\xf1{\xb8\xee?Mb\x10\xd8\x7f+\xe0?'
p1480
tp1481
bsg21
F1.16
sg22
F-999.0
sg23
F33.594668
sg24
F10.23
sg25
F151.7770218
sg26
g27
sg28
I-999
sg29
F0.14
sg30
g31
sg32
F165.7
sg33
F201.566686
sg34
F0.03552
ssS'JINGLE122'
p1482
(dp1483
g3
S'J131313.45+335903.9'
p1484
sg5
g6
(g7
(I0
tp1485
g9
tp1486
Rp1487
(I1
(I2
tp1488
g16
I00
S'\x81\x95C\x0bNK\x01@G\xe1z\x14B\x95\xf1?'
p1489
tp1490
bsg21
F1.5
sg22
F-999.0
sg23
F33.984434
sg24
F11.01
sg25
F150.1671074
sg90
S'PGC45921'
p1491
sg26
g27
sg28
I-999
sg29
F0.24
sg30
g31
sg32
F20.7
sg33
F198.306065
sg34
F0.03513
ssS'JINGLE121'
p1492
(dp1493
g3
S'J121017.87-003104.4'
p1494
sg5
g6
(g7
(I0
tp1495
g9
tp1496
Rp1497
(I1
(I2
tp1498
g16
I00
S')\\\x8fB\xafq\x00@\xc2\xf5(\\\x81\x04\xea?'
p1499
tp1500
bsg21
F1.51
sg22
F-999.0
sg23
F-0.517903
sg24
F11.01
sg25
F149.093157
sg90
S'PGC38720'
p1501
sg26
g27
sg28
I-999
sg29
F-0.16
sg30
g119
sg32
F167.1
sg33
F182.574492
sg34
F0.03487
ssS'JINGLE120'
p1502
(dp1503
g3
S'J131901.33+275330.1'
p1504
sg5
g6
(g7
(I0
tp1505
g9
tp1506
Rp1507
(I1
(I2
tp1508
g16
I00
S'\xc9v\xbe\x1fh\x05\xf6?\x01+\x87\x16\x0f(\xe9?'
p1509
tp1510
bsg21
F1.27
sg22
F2.35
sg23
F27.891702
sg24
F10.29
sg25
F148.969205
sg26
g27
sg28
I1
sg29
F-0.1
sg30
g31
sg32
F143.9
sg33
F199.755549
sg34
F0.03484
ssS'JINGLE127'
p1511
(dp1512
g3
S'J132240.39+325322.7'
p1513
sg5
g6
(g7
(I0
tp1514
g9
tp1515
Rp1516
(I1
(I2
tp1517
g16
I00
S'\x05\x81\x95\xc3\xd1c\xf3?\xf1\xd2Mb\xcc@\xea?'
p1518
tp1519
bsg21
F1.5
sg22
F-999.0
sg23
F32.889648
sg24
F10.93
sg25
F153.3032559
sg26
g27
sg28
I-999
sg29
F0.06
sg30
g31
sg32
F148.0
sg33
F200.668302
sg34
F0.03589
ssS'JINGLE126'
p1520
(dp1521
g3
S'J115950.68-012255.0'
p1522
sg5
g6
(g7
(I0
tp1523
g9
tp1524
Rp1525
(I1
(I2
tp1526
g16
I00
S'\xb2\x9d\xef\xa7\xc6K\xf1??5^\xba\x1a\x12\xe4?'
p1527
tp1528
bsg21
F-9.0
sg22
F-999.0
sg23
F-1.38195
sg24
Finf
sg25
F152.8908677
sg26
g27
sg28
I-999
sg29
Finf
sg30
g119
sg32
F49.4
sg33
F179.961198
sg34
F0.03579
ssS'JINGLE89'
p1529
(dp1530
g3
S'J085747.31-001159.8'
p1531
sg5
g6
(g7
(I0
tp1532
g9
tp1533
Rp1534
(I1
(I2
tp1535
g16
I00
S'\x0e-\xb2\x1d\x0e\x84\xf0?\x0e-\xb2\x9d\xb9N\xed?'
p1536
tp1537
bsg21
F1.15
sg22
F-999.0
sg23
F-0.199955
sg24
F10.3
sg25
F121.3983611
sg26
g27
sg28
I-999
sg29
F0.4
sg30
g265
sg32
F26.3
sg33
F134.447161
sg34
F0.02821
ssS'JINGLE88'
p1538
(dp1539
g3
S'J085408.51+002954.8'
p1540
sg5
g6
(g7
(I0
tp1541
g9
tp1542
Rp1543
(I1
(I2
tp1544
g16
I00
S'A`\xe5\xd0\xbd\x07\xf4?\xc0\xca\xa1E\xf3\xab\xd9?'
p1545
tp1546
bsg21
F1.13
sg22
F3.01
sg23
F0.498567
sg24
F10.11
sg25
F121.398361
sg26
g27
sg28
I1
sg29
F-0.11
sg30
g265
sg32
F156.4
sg33
F133.535472
sg34
F0.02821
ssS'JINGLE149'
p1547
(dp1548
g3
S'J125610.97+280947.4'
p1549
sg5
g6
(g7
(I0
tp1550
g9
tp1551
Rp1552
(I1
(I2
tp1553
g16
I00
S'\x84\xebQ\xb8T\xde\xe7?\xa3p=\ny\xaf\xd8?'
p1554
tp1555
bsg21
F1.18
sg22
F-999.0
sg23
F28.163169
sg24
F10.24
sg25
F124.7022197
sg26
g27
sg28
I-999
sg29
F0.1
sg30
g31
sg32
F13.2
sg33
F194.045738
sg34
F0.029
ssS'JINGLE148'
p1556
(dp1557
g3
S'J131551.16+263320.4'
p1558
sg5
g6
(g7
(I0
tp1559
g9
tp1560
Rp1561
(I1
(I2
tp1562
g16
I00
S'\x81\x95C\x0b\x1f\x11\xe0?\x17\x04V\x0e\xfe\xb7\xdc?'
p1563
tp1564
bsg21
F0.88
sg22
F-999.0
sg23
F26.555677
sg24
F10.01
sg25
F162.9715093
sg26
g27
sg28
I-999
sg29
F0.45
sg30
g31
sg32
F55.3
sg33
F198.963166
sg34
F0.03824
ssS'JINGLE141'
p1565
(dp1566
g3
S'J132608.93+262837.7'
p1567
sg5
g6
(g7
(I0
tp1568
g9
tp1569
Rp1570
(I1
(I2
tp1571
g16
I00
S'\xe5\xd0"\xdb(\xf9\xf5?\xe7\xfb\xa9q\'\x83\xe4?'
p1572
tp1573
bsg21
F1.11
sg22
F0.71
sg23
F26.47716
sg24
F10.34
sg25
F158.4925334
sg26
g27
sg28
I1
sg29
F0.67
sg30
g31
sg32
F36.1
sg33
F201.537215
sg34
F0.03715
ssS'JINGLE140'
p1574
(dp1575
g3
S'J132609.41+264612.2'
p1576
sg5
g6
(g7
(I0
tp1577
g9
tp1578
Rp1579
(I1
(I2
tp1580
g16
I00
S'~j\xbct\x85Z\xef?|?5^\xe9C\xcf?'
p1581
tp1582
bsg21
F0.61
sg22
F0.57
sg23
F26.770066
sg24
F9.49
sg25
F158.451398
sg26
g27
sg28
I2
sg29
F-0.14
sg30
g31
sg32
F44.5
sg33
F201.539209
sg34
F0.03714
ssS'JINGLE143'
p1583
(dp1584
g3
S'J132657.33+261434.4'
p1585
sg5
g6
(g7
(I0
tp1586
g9
tp1587
Rp1588
(I1
(I2
tp1589
g16
I00
S'\x97n\x12\x83\xef\xc4\xeb?\xff\xff\xff\xffV\x95\xe9?'
p1590
tp1591
bsg21
F1.27
sg22
F1.28
sg23
F26.242889
sg24
F10.41
sg25
F159.602881
sg26
g27
sg28
I1
sg29
F0.25
sg30
g31
sg32
F64.1
sg33
F201.738906
sg34
F0.03742
ssS'JINGLE142'
p1592
(dp1593
g3
S'J132957.76+303831.4'
p1594
sg5
g6
(g7
(I0
tp1595
g9
tp1596
Rp1597
(I1
(I2
tp1598
g16
I00
S'333\xb3\x87h\xe3?\x9b\xc4 \xb0\x9a\x03\xde?'
p1599
tp1600
bsg21
F0.88
sg22
F-999.0
sg23
F30.642056
sg24
F9.63
sg25
F158.9860927
sg26
g27
sg28
I-999
sg29
F-0.74
sg30
g31
sg32
F67.1
sg33
F202.490689
sg34
F0.03727
ssS'JINGLE145'
p1601
(dp1602
g3
S'J130305.93+263152.0'
p1603
sg5
g6
(g7
(I0
tp1604
g9
tp1605
Rp1606
(I1
(I2
tp1607
g16
I00
S'?5^\xba\x05\xf5\xef?\x00\x00\x00\x00\x9b\xac\xe4?'
p1608
tp1609
bsg21
F1.1
sg22
F1.98
sg23
F26.531131
sg24
F9.93
sg25
F83.057135
sg26
g27
sg28
I1
sg29
F-0.57
sg30
g31
sg32
F171.7
sg33
F195.774732
sg34
F0.01913
ssS'JINGLE144'
p1610
(dp1611
g3
S'J131745.65+271302.4'
p1612
sg5
g6
(g7
(I0
tp1613
g9
tp1614
Rp1615
(I1
(I2
tp1616
g16
I00
S'\xc0\xca\xa1E\xbdR\xee?O\x8d\x97n\xd5\xca\xdc?'
p1617
tp1618
bsg21
F1.42
sg22
F-999.0
sg23
F27.217337
sg24
F10.67
sg25
F160.3838911
sg26
g27
sg28
I-999
sg29
F0.27
sg30
g31
sg32
F56.9
sg33
F199.440219
sg34
F0.03761
ssS'JINGLE147'
p1619
(dp1620
g3
S'J144322.25+010553.2'
p1621
sg5
g6
(g7
(I0
tp1622
g9
tp1623
Rp1624
(I1
(I2
tp1625
g16
I00
S'\x10X9\xb4\xba\xb8\xef?`\xe5\xd0\xa2(\xd0\xe3?'
p1626
tp1627
bsg21
F1.36
sg22
F-999.0
sg23
F1.098119
sg24
F10.73
sg25
F162.5609859
sg26
g27
sg28
I-999
sg29
F0.8
sg30
g53
sg32
F175.3
sg33
F220.842738
sg34
F0.03814
ssS'JINGLE146'
p1628
(dp1629
g3
S'J131141.24+262323.5'
p1630
sg5
g6
(g7
(I0
tp1631
g9
tp1632
Rp1633
(I1
(I2
tp1634
g16
I00
S'\x93\x18\x04V\xa9\xd9\xbb?\xd6\xa3p=}\xe8\xba?'
p1635
tp1636
bsg21
F0.74
sg22
F1.25
sg23
F26.389861
sg24
F9.9
sg25
F162.23251
sg26
g27
sg28
I1
sg29
F0.61
sg30
g31
sg32
F52.6
sg33
F197.921863
sg34
F0.03806
ssS'JINGLE32'
p1637
(dp1638
g3
S'J125809.99+242056.1'
p1639
sg5
g6
(g7
(I0
tp1640
g9
tp1641
Rp1642
(I1
(I2
tp1643
g16
I00
S'\x0e-\xb2\x9d\xef\xa7\xe8?\xe9&1\x08v\xc3\xe5?'
p1644
tp1645
bsg21
F0.61
sg22
F1.01
sg23
F24.348926
sg24
F9.54
sg25
F97.83226
sg26
g27
sg28
I1
sg29
F0.04
sg30
g31
sg32
F127.3
sg33
F194.541638
sg34
F0.02261
ssS'JINGLE33'
p1646
(dp1647
g3
S'J130945.77+283716.3'
p1648
sg5
g6
(g7
(I0
tp1649
g9
tp1650
Rp1651
(I1
(I2
tp1652
g16
I00
S'\xf5(\\\x0f\tm\xe6?1\x08\xac\x1c\xb8X\xe0?'
p1653
tp1654
bsg21
F0.93
sg22
F-999.0
sg23
F28.621208
sg24
F9.8
sg25
F97.87457274
sg26
g27
sg28
I-999
sg29
F-0.37
sg30
g31
sg32
F168.5
sg33
F197.440708
sg34
F0.02262
ssS'JINGLE30'
p1655
(dp1656
g3
S'J130558.70+252756.4'
p1657
sg5
g6
(g7
(I0
tp1658
g9
tp1659
Rp1660
(I1
(I2
tp1661
g16
I00
S'J\x0c\x02\xab\x03\xe7\xf4?&1\x08,4\xd7\xe1?'
p1662
tp1663
bsg21
F1.01
sg22
F1.11
sg23
F25.465687
sg24
F9.95
sg25
F94.275065
sg26
g27
sg28
I1
sg29
F-0.19
sg30
g31
sg32
F53.2
sg33
F196.494603
sg34
F0.02177
ssS'JINGLE31'
p1664
(dp1665
g3
S'J131502.15+280210.9'
p1666
sg5
g6
(g7
(I0
tp1667
g9
tp1668
Rp1669
(I1
(I2
tp1670
g16
I00
S'E\xb6\xf3\xfdG\x8a\xea?\xbct\x93\x98"2\xe4?'
p1671
tp1672
bsg21
F0.82
sg22
F0.8
sg23
F28.036362
sg24
F9.71
sg25
F94.359829
sg26
g27
sg28
I1
sg29
F-0.26
sg30
g31
sg32
F103.7
sg33
F198.758959
sg34
F0.02179
ssS'JINGLE36'
p1673
(dp1674
g3
S'J130851.54+283745.4'
p1675
sg5
g6
(g7
(I0
tp1676
g9
tp1677
Rp1678
(I1
(I2
tp1679
g16
I00
S'?5^\xba\xae\xdf\xf1?\xf3\xfd\xd4xv\x15\xda?'
p1680
tp1681
bsg21
F0.7
sg22
F-999.0
sg23
F28.629285
sg24
F9.51
sg25
F98.33995408
sg26
g27
sg28
I-999
sg29
F-0.47
sg30
g31
sg32
F25.6
sg33
F197.214773
sg34
F0.02273
ssS'JINGLE37'
p1682
(dp1683
g3
S'J131508.21+302413.5'
p1684
sg5
g6
(g7
(I0
tp1685
g9
tp1686
Rp1687
(I1
(I2
tp1688
g16
I00
S'\x8bl\xe7\xfb\xdfJ\xf5?`\xe5\xd0"\xb3^\xe9?'
p1689
tp1690
bsg21
F1.24
sg22
F-999.0
sg23
F30.403771
sg24
F10.43
sg25
F100.1159442
sg26
g27
sg28
I-999
sg29
F0.45
sg30
g31
sg32
F94.9
sg33
F198.784232
sg34
F0.02315
ssS'JINGLE34'
p1691
(dp1692
g3
S'J132703.18+305836.6'
p1693
sg5
g6
(g7
(I0
tp1694
g9
tp1695
Rp1696
(I1
(I2
tp1697
g16
I00
S'4^\xbaI;\xfc\xf6?\xd9\xce\xf7\xd3\x8ep\xe5?'
p1698
tp1699
bsg21
F0.86
sg22
F-999.0
sg23
F30.976845
sg24
F9.88
sg25
F98.0438139
sg26
g27
sg28
I-999
sg29
F0.1
sg30
g31
sg32
F45.9
sg33
F201.763274
sg34
F0.02266
ssS'JINGLE35'
p1700
(dp1701
g3
S'J131958.31+281449.3'
p1702
sg5
g6
(g7
(I0
tp1703
g9
tp1704
Rp1705
(I1
(I2
tp1706
g16
I00
S'^\xbaI\x0c`\x9f\xf0?\x10X94\xe7R\xe7?'
p1707
tp1708
bsg21
F1.13
sg22
F-999.0
sg23
F28.247041
sg24
F10.17
sg25
F98.21304183
sg26
g27
sg28
I-999
sg29
F0.08
sg30
g31
sg32
F152.3
sg33
F199.992987
sg34
F0.0227
ssS'JINGLE38'
p1709
(dp1710
g3
S'J131928.01+274456.2'
p1711
sg5
g6
(g7
(I0
tp1712
g9
tp1713
Rp1714
(I1
(I2
tp1715
g16
I00
S'\xed|?5\xa2\xd1\xe9?\xebQ\xb8\x1e\xb4\xe5\xde?'
p1716
tp1717
bsg21
F0.86
sg22
F0.91
sg23
F27.748969
sg24
F9.86
sg25
F100.496324
sg26
g27
sg28
I1
sg29
F0.04
sg30
g31
sg32
F33.0
sg33
F199.866709
sg34
F0.02324
ssS'JINGLE39'
p1718
(dp1719
g3
S'J132638.85+270223.4'
p1720
sg5
g6
(g7
(I0
tp1721
g9
tp1722
Rp1723
(I1
(I2
tp1724
g16
I00
S'\x8bl\xe7\xfb\xa9\xf1\xf9?\x1cZd;\x88\xba\xd7?'
p1725
tp1726
bsg21
F0.9
sg22
F1.8
sg23
F27.039839
sg24
F9.77
sg25
F100.623102
sg26
g27
sg28
I1
sg29
F-0.38
sg30
g31
sg32
F129.1
sg33
F201.661873
sg34
F0.02327
ssS'JINGLE138'
p1727
(dp1728
g3
S'J130014.45+271650.6'
p1729
sg5
g6
(g7
(I0
tp1730
g9
tp1731
Rp1732
(I1
(I2
tp1733
g16
I00
S'\xa3p=\n5\x18\xf2?"\xdb\xf9~B!\xdc?'
p1734
tp1735
bsg21
F0.88
sg22
F1.04
sg23
F27.280727
sg24
F9.88
sg25
F158.040004
sg26
g27
sg28
I2
sg29
F0.03
sg30
g31
sg32
F25.6
sg33
F195.060211
sg34
F0.03704
ssS'JINGLE139'
p1736
(dp1737
g3
S'J132237.71+321439.4'
p1738
sg5
g6
(g7
(I0
tp1739
g9
tp1740
Rp1741
(I1
(I2
tp1742
g16
I00
S'v\xbe\x9f\x1a\xf9\x83\xef?\x84\xebQ\xb8\x91\x96\xee?'
p1743
tp1744
bsg21
F1.28
sg22
F-999.0
sg23
F32.244292
sg24
F10.47
sg25
F158.2457108
sg26
g27
sg28
I-999
sg29
F0.39
sg30
g31
sg32
F109.4
sg33
F200.657123
sg34
F0.03709
ssS'JINGLE134'
p1745
(dp1746
g3
S'J132732.44+273614.0'
p1747
sg5
g6
(g7
(I0
tp1748
g9
tp1749
Rp1750
(I1
(I2
tp1751
g16
I00
S'\x10X94\x1d\xac\xf2?\x19\x04V\x0e\xcf\xbd\xe5?'
p1752
tp1753
bsg21
F1.38
sg22
F1.55
sg23
F27.60389
sg24
F10.51
sg25
F156.640668
sg26
g27
sg28
I1
sg29
F0.01
sg30
g31
sg32
F120.9
sg33
F201.885169
sg34
F0.0367
ssS'JINGLE135'
p1754
(dp1755
g3
S'J132708.67+281544.2'
p1756
sg5
g6
(g7
(I0
tp1757
g9
tp1758
Rp1759
(I1
(I2
tp1760
g16
I00
S'\x0c\x02+\x87\x82\x8b\xef?=\n\xd7#Y\xc0\xe0?'
p1761
tp1762
bsg21
F0.82
sg22
F0.86
sg23
F28.262278
sg24
F9.91
sg25
F157.422763
sg26
g27
sg28
I1
sg29
F0.34
sg30
g31
sg32
F28.4
sg33
F201.786145
sg34
F0.03689
ssS'JINGLE136'
p1763
(dp1764
g3
S'J143816.50-002059.0'
p1765
sg5
g6
(g7
(I0
tp1766
g9
tp1767
Rp1768
(I1
(I2
tp1769
g16
I00
S'$\x06\x81\x95\xd7X\xfc?\x86\x16\xd9\xceUH\xea?'
p1770
tp1771
bsg21
F1.5
sg22
F-999.0
sg23
F-0.349745
sg24
F10.96
sg25
F157.4639177
sg26
g27
sg28
I-999
sg29
F0.16
sg30
g53
sg32
F59.5
sg33
F219.568771
sg34
F0.0369
ssS'JINGLE137'
p1772
(dp1773
g3
S'J143643.42-003401.3'
p1774
sg5
g6
(g7
(I0
tp1775
g9
tp1776
Rp1777
(I1
(I2
tp1778
g16
I00
S'L7\x89A\xb7z\xe8?y\xe9&1\x95\x9a\xdf?'
p1779
tp1780
bsg21
F0.79
sg22
F-999.0
sg23
F-0.567049
sg24
F9.58
sg25
F157.8342765
sg26
g27
sg28
I-999
sg29
F-0.57
sg30
g53
sg32
F166.3
sg33
F219.180928
sg34
F0.03699
ssS'JINGLE130'
p1781
(dp1782
g3
S'J133931.82+312657.8'
p1783
sg5
g6
(g7
(I0
tp1784
g9
tp1785
Rp1786
(I1
(I2
tp1787
g16
I00
S'\n\xd7\xa3p\xca\xf8\xdf?\xfc\xa9\xf1\xd2\xe8\x0e\xce?'
p1788
tp1789
bsg21
F0.57
sg22
F-999.0
sg23
F31.449412
sg24
F9.16
sg25
F154.9108093
sg26
g27
sg28
I-999
sg29
F-0.98
sg30
g31
sg32
F119.2
sg33
F204.882614
sg34
F0.03628
ssS'JINGLE131'
p1790
(dp1791
g3
S'J133334.94+294921.0'
p1792
sg5
g6
(g7
(I0
tp1793
g9
tp1794
Rp1795
(I1
(I2
tp1796
g16
I00
S'\x8d\x97n\x12\xc7\xd7\xeb?\x03V\x0e-\x10\x92\xdb?'
p1797
tp1798
bsg21
F1.32
sg22
F-999.0
sg23
F29.822522
sg24
F10.39
sg25
F155.652349
sg26
g27
sg28
I-999
sg29
F-0.03
sg30
g31
sg32
F31.7
sg33
F203.395612
sg34
F0.03646
ssS'JINGLE132'
p1799
(dp1800
g3
S'J133724.84+272509.1'
p1801
sg5
g6
(g7
(I0
tp1802
g9
tp1803
Rp1804
(I1
(I2
tp1805
g16
I00
S'9\xb4\xc8v\xcc]\xfd?O\x8d\x97n \xc1\xf7?'
p1806
tp1807
bsg21
F1.51
sg22
F2.59
sg23
F27.419214
sg24
F11.16
sg25
F156.0642042
sg90
S'PGC48119'
p1808
sg26
g27
sg28
I1
sg29
F0.01
sg30
g31
sg32
F55.9
sg33
F204.353504
sg34
F0.03656
ssS'JINGLE133'
p1809
(dp1810
g3
S'J133917.44+280205.9'
p1811
sg5
g6
(g7
(I0
tp1812
g9
tp1813
Rp1814
(I1
(I2
tp1815
g16
I00
S'Zd;_\xd3\xbc\xf1?+\x87\x16\xd93K\xde?'
p1816
tp1817
bsg21
F1.26
sg22
F1.45
sg23
F28.034982
sg24
F10.43
sg25
F156.47598
sg26
g27
sg28
I1
sg29
F0.35
sg30
g31
sg32
F147.1
sg33
F204.822682
sg34
F0.03666
ss.